///////////////////////////////////////////////////////////////////////////////
//                                                                            /
// IAR C/C++ Compiler V8.10.3.10338/W32 for 8051        18/Feb/2016  20:17:11 /
// Copyright 2004-2011 IAR Systems AB.                                        /
//                                                                            /
//    Core               =  plain                                             /
//    Code model         =  banked                                            /
//    Data model         =  large                                             /
//    Calling convention =  xdata reentrant                                   /
//    Constant location  =  data_rom                                          /
//    Dptr setup         =  1,16                                              /
//    Source file        =  G:\Agriculture_Work\ZStack-2.5.1a\Projects\zstack /
//                          \Samples\Photovoltaic\Source\OSAL_Example.c       /
//    Command line       =  -f G:\Agriculture_Work\ZStack-2.5.1a\Projects\zst /
//                          ack\Samples\Photovoltaic\CC2530DB\..\..\..\Tools\ /
//                          CC2530DB\f8wRouter.cfg (-DCPU32MHZ                /
//                          -DROOT=__near_func -DMAC_CFG_APP_PENDING_QUEUE=TR /
//                          UE -DMAC_CFG_TX_DATA_MAX=5 -DMAC_CFG_TX_MAX=8     /
//                          -DMAC_CFG_RX_MAX=5 -DRTR_NWK) -f                  /
//                          G:\Agriculture_Work\ZStack-2.5.1a\Projects\zstack /
//                          \Samples\Photovoltaic\CC2530DB\..\..\..\Tools\CC2 /
//                          530DB\f8wConfig.cfg (-DZIGBEEPRO -DSECURE=0       /
//                          -DZG_SECURE_DYNAMIC=0 -DREFLECTOR                 /
//                          -DDEFAULT_CHANLIST=0x02000000                     /
//                          -DZDAPP_CONFIG_PAN_ID=0xFFF1                      /
//                          -DNWK_START_DELAY=100 -DEXTENDED_JOINING_RANDOM_M /
//                          ASK=0x007F -DBEACON_REQUEST_DELAY=100             /
//                          -DBEACON_REQ_DELAY_MASK=0x00FF                    /
//                          -DLINK_STATUS_JITTER_MASK=0x007F                  /
//                          -DROUTE_EXPIRY_TIME=30 -DAPSC_ACK_WAIT_DURATION_P /
//                          OLLED=3000 -DNWK_INDIRECT_MSG_TIMEOUT=7           /
//                          -DMAX_RREQ_ENTRIES=8 -DAPSC_MAX_FRAME_RETRIES=3   /
//                          -DNWK_MAX_DATA_RETRIES=2                          /
//                          -DMAX_POLL_FAILURE_RETRIES=2 -DMAX_BCAST=9        /
//                          -DAPS_MAX_GROUPS=16 -DMAX_RTG_ENTRIES=40          /
//                          -DNWK_MAX_BINDING_ENTRIES=4                       /
//                          -DMAX_BINDING_CLUSTER_IDS=4                       /
//                          "-DDEFAULT_KEY={0x01, 0x03, 0x05, 0x07, 0x09,     /
//                          0x0B, 0x0D, 0x0F, 0x00, 0x02, 0x04, 0x06, 0x08,   /
//                          0x0A, 0x0C, 0x0D}" -DMAC_MAX_FRAME_SIZE=116       /
//                          -DZDNWKMGR_MIN_TRANSMISSIONS=20 "-DCONST=const    /
//                          __code" -DGENERIC=__generic                       /
//                          -DRFD_RCVC_ALWAYS_ON=FALSE -DPOLL_RATE=1000       /
//                          -DQUEUED_POLL_RATE=100 -DRESPONSE_POLL_RATE=100)  /
//                          -DREJOIN_POLL_RATE=440 G:\Agriculture_Work\ZStack /
//                          -2.5.1a\Projects\zstack\Samples\Photovoltaic\Sour /
//                          ce\OSAL_Example.c -D ZTOOL_P1 -D NWK_AUTO_POLL    /
//                          -D METEOROLOGICAL -lC G:\Agriculture_Work\ZStack- /
//                          2.5.1a\Projects\zstack\Samples\Photovoltaic\CC253 /
//                          0DB\RouterEB\List\ -lA G:\Agriculture_Work\ZStack /
//                          -2.5.1a\Projects\zstack\Samples\Photovoltaic\CC25 /
//                          30DB\RouterEB\List\ --diag_suppress Pe001,Pa010   /
//                          -o G:\Agriculture_Work\ZStack-2.5.1a\Projects\zst /
//                          ack\Samples\Photovoltaic\CC2530DB\RouterEB\Obj\   /
//                          -e --no_code_motion --debug --core=plain          /
//                          --dptr=16,1 --data_model=large                    /
//                          --code_model=banked --calling_convention=xdata_re /
//                          entrant --place_constants=data_rom                /
//                          --nr_virtual_regs 16 -I                           /
//                          G:\Agriculture_Work\ZStack-2.5.1a\Projects\zstack /
//                          \Samples\Photovoltaic\CC2530DB\ -I                /
//                          G:\Agriculture_Work\ZStack-2.5.1a\Projects\zstack /
//                          \Samples\Photovoltaic\CC2530DB\..\Source\ -I      /
//                          G:\Agriculture_Work\ZStack-2.5.1a\Projects\zstack /
//                          \Samples\Photovoltaic\CC2530DB\..\..\..\ZMain\TI2 /
//                          530DB\ -I G:\Agriculture_Work\ZStack-2.5.1a\Proje /
//                          cts\zstack\Samples\Photovoltaic\CC2530DB\..\..\.. /
//                          \..\..\Components\hal\include\ -I                 /
//                          G:\Agriculture_Work\ZStack-2.5.1a\Projects\zstack /
//                          \Samples\Photovoltaic\CC2530DB\..\..\..\..\..\Com /
//                          ponents\hal\target\CC2530EB\ -I                   /
//                          G:\Agriculture_Work\ZStack-2.5.1a\Projects\zstack /
//                          \Samples\Photovoltaic\CC2530DB\..\..\..\..\..\Com /
//                          ponents\mac\include\ -I                           /
//                          G:\Agriculture_Work\ZStack-2.5.1a\Projects\zstack /
//                          \Samples\Photovoltaic\CC2530DB\..\..\..\..\..\Com /
//                          ponents\mac\high_level\ -I                        /
//                          G:\Agriculture_Work\ZStack-2.5.1a\Projects\zstack /
//                          \Samples\Photovoltaic\CC2530DB\..\..\..\..\..\Com /
//                          ponents\mac\low_level\srf04\ -I                   /
//                          G:\Agriculture_Work\ZStack-2.5.1a\Projects\zstack /
//                          \Samples\Photovoltaic\CC2530DB\..\..\..\..\..\Com /
//                          ponents\mac\low_level\srf04\single_chip\ -I       /
//                          G:\Agriculture_Work\ZStack-2.5.1a\Projects\zstack /
//                          \Samples\Photovoltaic\CC2530DB\..\..\..\..\..\Com /
//                          ponents\mt\ -I G:\Agriculture_Work\ZStack-2.5.1a\ /
//                          Projects\zstack\Samples\Photovoltaic\CC2530DB\..\ /
//                          ..\..\..\..\Components\osal\include\ -I           /
//                          G:\Agriculture_Work\ZStack-2.5.1a\Projects\zstack /
//                          \Samples\Photovoltaic\CC2530DB\..\..\..\..\..\Com /
//                          ponents\services\saddr\ -I                        /
//                          G:\Agriculture_Work\ZStack-2.5.1a\Projects\zstack /
//                          \Samples\Photovoltaic\CC2530DB\..\..\..\..\..\Com /
//                          ponents\services\sdata\ -I                        /
//                          G:\Agriculture_Work\ZStack-2.5.1a\Projects\zstack /
//                          \Samples\Photovoltaic\CC2530DB\..\..\..\..\..\Com /
//                          ponents\stack\af\ -I G:\Agriculture_Work\ZStack-2 /
//                          .5.1a\Projects\zstack\Samples\Photovoltaic\CC2530 /
//                          DB\..\..\..\..\..\Components\stack\nwk\ -I        /
//                          G:\Agriculture_Work\ZStack-2.5.1a\Projects\zstack /
//                          \Samples\Photovoltaic\CC2530DB\..\..\..\..\..\Com /
//                          ponents\stack\sapi\ -I G:\Agriculture_Work\ZStack /
//                          -2.5.1a\Projects\zstack\Samples\Photovoltaic\CC25 /
//                          30DB\..\..\..\..\..\Components\stack\sec\ -I      /
//                          G:\Agriculture_Work\ZStack-2.5.1a\Projects\zstack /
//                          \Samples\Photovoltaic\CC2530DB\..\..\..\..\..\Com /
//                          ponents\stack\sys\ -I G:\Agriculture_Work\ZStack- /
//                          2.5.1a\Projects\zstack\Samples\Photovoltaic\CC253 /
//                          0DB\..\..\..\..\..\Components\stack\zdo\ -I       /
//                          G:\Agriculture_Work\ZStack-2.5.1a\Projects\zstack /
//                          \Samples\Photovoltaic\CC2530DB\..\..\..\..\..\Com /
//                          ponents\zmac\ -I G:\Agriculture_Work\ZStack-2.5.1 /
//                          a\Projects\zstack\Samples\Photovoltaic\CC2530DB\. /
//                          .\..\..\..\..\Components\zmac\f8w\ -Ohz           /
//                          --require_prototypes                              /
//    List file          =  G:\Agriculture_Work\ZStack-2.5.1a\Projects\zstack /
//                          \Samples\Photovoltaic\CC2530DB\RouterEB\List\OSAL /
//                          _Example.s51                                      /
//                                                                            /
//                                                                            /
///////////////////////////////////////////////////////////////////////////////

        NAME OSAL_Example

        RTMODEL "__SystemLibrary", "CLib"
        RTMODEL "__calling_convention", "xdata_reentrant"
        RTMODEL "__code_model", "banked"
        RTMODEL "__core", "plain"
        RTMODEL "__data_model", "large"
        RTMODEL "__dptr_size", "16"
        RTMODEL "__extended_stack", "disabled"
        RTMODEL "__location_for_constants", "data"
        RTMODEL "__number_of_dptrs", "1"
        RTMODEL "__rt_version", "1"

        RSEG DOVERLAY:DATA:NOROOT(0)
        RSEG IOVERLAY:IDATA:NOROOT(0)
        RSEG ISTACK:IDATA:NOROOT(0)
        RSEG PSTACK:XDATA:NOROOT(0)
        RSEG XSTACK:XDATA:NOROOT(0)

        EXTERN ?BDISPATCH
        EXTERN ?BRET
        EXTERN __INIT_XDATA_Z

        PUBLIC ??osalInitTasks?relay
        FUNCTION ??osalInitTasks?relay,0203H
        PUBLIC osalInitTasks
        FUNCTION osalInitTasks,021203H
        ARGFRAME XSTACK, 0, STACK
        LOCFRAME ISTACK, 2, STACK
        PUBLIC tasksArr
        PUBLIC tasksCnt
        PUBLIC tasksEvents
        
        CFI Names cfiNames0
        CFI StackFrame CFA_SP SP IDATA
        CFI StackFrame CFA_PSP16 PSP16 XDATA
        CFI StackFrame CFA_XSP16 XSP16 XDATA
        CFI StaticOverlayFrame CFA_IOVERLAY IOVERLAY
        CFI StaticOverlayFrame CFA_DOVERLAY DOVERLAY
        CFI Resource `PSW.CY`:1, `B.BR0`:1, `B.BR1`:1, `B.BR2`:1, `B.BR3`:1
        CFI Resource `B.BR4`:1, `B.BR5`:1, `B.BR6`:1, `B.BR7`:1, `VB.BR8`:1
        CFI Resource `VB.BR9`:1, `VB.BR10`:1, `VB.BR11`:1, `VB.BR12`:1
        CFI Resource `VB.BR13`:1, `VB.BR14`:1, `VB.BR15`:1, VB:8, B:8, A:8
        CFI Resource PSW:8, DPL0:8, DPH0:8, R0:8, R1:8, R2:8, R3:8, R4:8, R5:8
        CFI Resource R6:8, R7:8, V0:8, V1:8, V2:8, V3:8, V4:8, V5:8, V6:8, V7:8
        CFI Resource V8:8, V9:8, V10:8, V11:8, V12:8, V13:8, V14:8, V15:8, SP:8
        CFI Resource PSPH:8, PSPL:8, PSP16:16, XSPH:8, XSPL:8, XSP16:16
        CFI VirtualResource ?RET:24
        CFI Resource ?BRET_EXT:8
        CFI VirtualResource ?RET_HIGH:8, ?RET_LOW:8
        CFI ResourceParts PSP16 PSPH, PSPL
        CFI ResourceParts XSP16 XSPH, XSPL
        CFI ResourceParts ?RET ?BRET_EXT, ?RET_HIGH, ?RET_LOW
        CFI EndNames cfiNames0
        
        CFI Common cfiCommon0 Using cfiNames0
        CFI CodeAlign 1
        CFI DataAlign -1
        CFI ReturnAddress ?RET CODE
        CFI CFA_DOVERLAY Used
        CFI CFA_IOVERLAY Used
        CFI CFA_SP SP+-3
        CFI CFA_PSP16 PSP16+0
        CFI CFA_XSP16 XSP16+0
        CFI `PSW.CY` SameValue
        CFI `B.BR0` SameValue
        CFI `B.BR1` SameValue
        CFI `B.BR2` SameValue
        CFI `B.BR3` SameValue
        CFI `B.BR4` SameValue
        CFI `B.BR5` SameValue
        CFI `B.BR6` SameValue
        CFI `B.BR7` SameValue
        CFI `VB.BR8` SameValue
        CFI `VB.BR9` SameValue
        CFI `VB.BR10` SameValue
        CFI `VB.BR11` SameValue
        CFI `VB.BR12` SameValue
        CFI `VB.BR13` SameValue
        CFI `VB.BR14` SameValue
        CFI `VB.BR15` SameValue
        CFI VB SameValue
        CFI B Undefined
        CFI A Undefined
        CFI PSW SameValue
        CFI DPL0 SameValue
        CFI DPH0 SameValue
        CFI R0 Undefined
        CFI R1 Undefined
        CFI R2 Undefined
        CFI R3 Undefined
        CFI R4 Undefined
        CFI R5 Undefined
        CFI R6 SameValue
        CFI R7 SameValue
        CFI V0 SameValue
        CFI V1 SameValue
        CFI V2 SameValue
        CFI V3 SameValue
        CFI V4 SameValue
        CFI V5 SameValue
        CFI V6 SameValue
        CFI V7 SameValue
        CFI V8 SameValue
        CFI V9 SameValue
        CFI V10 SameValue
        CFI V11 SameValue
        CFI V12 SameValue
        CFI V13 SameValue
        CFI V14 SameValue
        CFI V15 SameValue
        CFI PSPH Undefined
        CFI PSPL Undefined
        CFI XSPH Undefined
        CFI XSPL Undefined
        CFI ?RET Concat
        CFI ?BRET_EXT Frame(CFA_SP, 3)
        CFI ?RET_HIGH Frame(CFA_SP, 2)
        CFI ?RET_LOW Frame(CFA_SP, 1)
        CFI EndCommon cfiCommon0
        
osal_mem_alloc      SYMBOL "osal_mem_alloc"
osal_memset         SYMBOL "osal_memset"
macTaskInit         SYMBOL "macTaskInit"
nwk_init            SYMBOL "nwk_init"
Hal_Init            SYMBOL "Hal_Init"
APS_Init            SYMBOL "APS_Init"
APSF_Init           SYMBOL "APSF_Init"
ZDApp_Init          SYMBOL "ZDApp_Init"
ZDNwkMgr_Init       SYMBOL "ZDNwkMgr_Init"
GenericApp_Init     SYMBOL "GenericApp_Init"
??APSF_Init?relay   SYMBOL "?relay", APSF_Init
`?<Name APSF_ProcessEvent 11>` SYMBOL "APSF_ProcessEvent"
??APSF_ProcessEvent?relay SYMBOL "?relay", `?<Name APSF_ProcessEvent 11>`
??APS_Init?relay    SYMBOL "?relay", APS_Init
`?<Name APS_event_loop 14>` SYMBOL "APS_event_loop"
??APS_event_loop?relay SYMBOL "?relay", `?<Name APS_event_loop 14>`
??GenericApp_Init?relay SYMBOL "?relay", GenericApp_Init
`?<Name GenericApp_ProcessEv 17>` SYMBOL "GenericApp_ProcessEvent"
??GenericApp_ProcessEvent?relay SYMBOL "?relay", `?<Name GenericApp_ProcessEv 17>`
??Hal_Init?relay    SYMBOL "?relay", Hal_Init
`?<Name Hal_ProcessEvent 20>` SYMBOL "Hal_ProcessEvent"
??Hal_ProcessEvent?relay SYMBOL "?relay", `?<Name Hal_ProcessEvent 20>`
??ZDApp_Init?relay  SYMBOL "?relay", ZDApp_Init
`?<Name ZDApp_event_loop 23>` SYMBOL "ZDApp_event_loop"
??ZDApp_event_loop?relay SYMBOL "?relay", `?<Name ZDApp_event_loop 23>`
??ZDNwkMgr_Init?relay SYMBOL "?relay", ZDNwkMgr_Init
`?<Name ZDNwkMgr_event_loop 26>` SYMBOL "ZDNwkMgr_event_loop"
??ZDNwkMgr_event_loop?relay SYMBOL "?relay", `?<Name ZDNwkMgr_event_loop 26>`
`?<Name macEventLoop 28>` SYMBOL "macEventLoop"
??macEventLoop?relay SYMBOL "?relay", `?<Name macEventLoop 28>`
??macTaskInit?relay SYMBOL "?relay", macTaskInit
`?<Name nwk_event_loop 31>` SYMBOL "nwk_event_loop"
??nwk_event_loop?relay SYMBOL "?relay", `?<Name nwk_event_loop 31>`
??nwk_init?relay    SYMBOL "?relay", nwk_init
??osal_mem_alloc?relay SYMBOL "?relay", osal_mem_alloc
??osal_memset?relay SYMBOL "?relay", osal_memset
osalInitTasks       SYMBOL "osalInitTasks"
??osalInitTasks?relay SYMBOL "?relay", osalInitTasks

        EXTERN osal_mem_alloc
        FUNCTION osal_mem_alloc,0202H
        ARGFRAME ISTACK, 2, STACK
        ARGFRAME PSTACK, 0, STACK
        ARGFRAME XSTACK, 0, STACK
        ARGFRAME IOVERLAY, 0, STATIC
        ARGFRAME DOVERLAY, 0, STATIC
        EXTERN osal_memset
        FUNCTION osal_memset,0202H
        ARGFRAME ISTACK, 2, STACK
        ARGFRAME PSTACK, 0, STACK
        ARGFRAME XSTACK, 0, STACK
        ARGFRAME IOVERLAY, 0, STATIC
        ARGFRAME DOVERLAY, 0, STATIC
        EXTERN macTaskInit
        FUNCTION macTaskInit,0202H
        ARGFRAME ISTACK, 2, STACK
        ARGFRAME PSTACK, 0, STACK
        ARGFRAME XSTACK, 0, STACK
        ARGFRAME IOVERLAY, 0, STATIC
        ARGFRAME DOVERLAY, 0, STATIC
        EXTERN nwk_init
        FUNCTION nwk_init,0202H
        ARGFRAME ISTACK, 2, STACK
        ARGFRAME PSTACK, 0, STACK
        ARGFRAME XSTACK, 0, STACK
        ARGFRAME IOVERLAY, 0, STATIC
        ARGFRAME DOVERLAY, 0, STATIC
        EXTERN Hal_Init
        FUNCTION Hal_Init,0202H
        ARGFRAME ISTACK, 2, STACK
        ARGFRAME PSTACK, 0, STACK
        ARGFRAME XSTACK, 0, STACK
        ARGFRAME IOVERLAY, 0, STATIC
        ARGFRAME DOVERLAY, 0, STATIC
        EXTERN APS_Init
        FUNCTION APS_Init,0202H
        ARGFRAME ISTACK, 2, STACK
        ARGFRAME PSTACK, 0, STACK
        ARGFRAME XSTACK, 0, STACK
        ARGFRAME IOVERLAY, 0, STATIC
        ARGFRAME DOVERLAY, 0, STATIC
        EXTERN APSF_Init
        FUNCTION APSF_Init,0202H
        ARGFRAME ISTACK, 2, STACK
        ARGFRAME PSTACK, 0, STACK
        ARGFRAME XSTACK, 0, STACK
        ARGFRAME IOVERLAY, 0, STATIC
        ARGFRAME DOVERLAY, 0, STATIC
        EXTERN ZDApp_Init
        FUNCTION ZDApp_Init,0202H
        ARGFRAME ISTACK, 2, STACK
        ARGFRAME PSTACK, 0, STACK
        ARGFRAME XSTACK, 0, STACK
        ARGFRAME IOVERLAY, 0, STATIC
        ARGFRAME DOVERLAY, 0, STATIC
        EXTERN ZDNwkMgr_Init
        FUNCTION ZDNwkMgr_Init,0202H
        ARGFRAME ISTACK, 2, STACK
        ARGFRAME PSTACK, 0, STACK
        ARGFRAME XSTACK, 0, STACK
        ARGFRAME IOVERLAY, 0, STATIC
        ARGFRAME DOVERLAY, 0, STATIC
        EXTERN GenericApp_Init
        FUNCTION GenericApp_Init,0202H
        ARGFRAME ISTACK, 2, STACK
        ARGFRAME PSTACK, 0, STACK
        ARGFRAME XSTACK, 0, STACK
        ARGFRAME IOVERLAY, 0, STATIC
        ARGFRAME DOVERLAY, 0, STATIC
        EXTERN ??APSF_Init?relay
        FUNCTION ??APSF_Init?relay,00H
        EXTERN ??APSF_ProcessEvent?relay
        FUNCTION ??APSF_ProcessEvent?relay,00H
        EXTERN ??APS_Init?relay
        FUNCTION ??APS_Init?relay,00H
        EXTERN ??APS_event_loop?relay
        FUNCTION ??APS_event_loop?relay,00H
        EXTERN ??GenericApp_Init?relay
        FUNCTION ??GenericApp_Init?relay,00H
        EXTERN ??GenericApp_ProcessEvent?relay
        FUNCTION ??GenericApp_ProcessEvent?relay,00H
        EXTERN ??Hal_Init?relay
        FUNCTION ??Hal_Init?relay,00H
        EXTERN ??Hal_ProcessEvent?relay
        FUNCTION ??Hal_ProcessEvent?relay,00H
        EXTERN ??ZDApp_Init?relay
        FUNCTION ??ZDApp_Init?relay,00H
        EXTERN ??ZDApp_event_loop?relay
        FUNCTION ??ZDApp_event_loop?relay,00H
        EXTERN ??ZDNwkMgr_Init?relay
        FUNCTION ??ZDNwkMgr_Init?relay,00H
        EXTERN ??ZDNwkMgr_event_loop?relay
        FUNCTION ??ZDNwkMgr_event_loop?relay,00H
        EXTERN ??macEventLoop?relay
        FUNCTION ??macEventLoop?relay,00H
        EXTERN ??macTaskInit?relay
        FUNCTION ??macTaskInit?relay,00H
        EXTERN ??nwk_event_loop?relay
        FUNCTION ??nwk_event_loop?relay,00H
        EXTERN ??nwk_init?relay
        FUNCTION ??nwk_init?relay,00H
        EXTERN ??osal_mem_alloc?relay
        FUNCTION ??osal_mem_alloc?relay,00H
        EXTERN ??osal_memset?relay
        FUNCTION ??osal_memset?relay,00H

// G:\Agriculture_Work\ZStack-2.5.1a\Projects\zstack\Samples\Photovoltaic\Source\OSAL_Example.c
//    1 #include "ZComDef.h"
//    2 #include "hal_drivers.h"  //硬件驱动头文件
//    3 #include "OSAL.h"         //操作系统头文件
//    4 #include "OSAL_Tasks.h"   //操作系统任务头文件
//    5 
//    6 #if defined ( MT_TASK )   //串口应用头文件
//    7   #include "MT.h"
//    8   #include "MT_TASK.h"
//    9 #endif
//   10 
//   11 #include "nwk.h"          //网络层头文件
//   12 #include "APS.h"          //应用支持层头文件
//   13 #include "ZDApp.h"        //设备对象头文件
//   14 
//   15 #if defined ( ZIGBEE_FREQ_AGILITY ) || defined ( ZIGBEE_PANID_CONFLICT )
//   16   #include "ZDNwkMgr.h"
//   17 #endif
//   18 
//   19 #if defined ( ZIGBEE_FRAGMENTATION )
//   20   #include "aps_frag.h"
//   21 #endif
//   22 #include "Common.h"
//   23 
//   24 // 任务注册

        RSEG XDATA_ROM_C:CONST:REORDER:NOROOT(0)
        DATA8
//   25 const pTaskEventHandlerFn tasksArr[] = {
tasksArr:
        DATA16
        DW ??macEventLoop?relay
        DW ??nwk_event_loop?relay
        DW ??Hal_ProcessEvent?relay
        DW ??APS_event_loop?relay
        DW ??APSF_ProcessEvent?relay
        DW ??ZDApp_event_loop?relay
        DW ??ZDNwkMgr_event_loop?relay
        DW ??GenericApp_ProcessEvent?relay
//   26   macEventLoop,           //MAC任务循环
//   27   nwk_event_loop,         //网络层任务函数
//   28   Hal_ProcessEvent,       //硬件层函数
//   29 #if defined( MT_TASK )
//   30   MT_ProcessEvent,        //串口支持层定义
//   31 #endif
//   32   APS_event_loop,         //应用支持层任务事件函数
//   33 #if defined ( ZIGBEE_FRAGMENTATION )
//   34   APSF_ProcessEvent,
//   35 #endif
//   36   ZDApp_event_loop,       //设备对象层函数
//   37 #if defined ( ZIGBEE_FREQ_AGILITY ) || defined ( ZIGBEE_PANID_CONFLICT )
//   38   ZDNwkMgr_event_loop,
//   39 #endif
//   40   GenericApp_ProcessEvent //自己定义的任务处理函数
//   41 };
//   42 

        RSEG XDATA_ROM_C:CONST:REORDER:NOROOT(0)
        DATA8
//   43 const uint8 tasksCnt = sizeof( tasksArr ) / sizeof( tasksArr[0] );
tasksCnt:
        DB 8

        RSEG XDATA_Z:XDATA:NOROOT(0)
        DATA16
//   44 uint16 *tasksEvents;
tasksEvents:
        DS 2
        REQUIRE __INIT_XDATA_Z
//   45 

        RSEG BANKED_CODE:CODE:NOROOT(0)
//   46 void osalInitTasks( void )//完成了任务ID的分配，以及所有任务的初始化
osalInitTasks:
        CFI Block cfiBlock0 Using cfiCommon0
        CFI Function osalInitTasks
        CODE
//   47 {
        FUNCALL osalInitTasks, osal_mem_alloc
        LOCFRAME ISTACK, 2, STACK
        LOCFRAME PSTACK, 0, STACK
        LOCFRAME XSTACK, 0, STACK
        LOCFRAME IOVERLAY, 0, STATIC
        LOCFRAME DOVERLAY, 0, STATIC
        ARGFRAME ISTACK, 2, STACK
        ARGFRAME PSTACK, 0, STACK
        ARGFRAME XSTACK, 0, STACK
        ARGFRAME IOVERLAY, 0, STATIC
        ARGFRAME DOVERLAY, 0, STATIC
        FUNCALL osalInitTasks, osal_memset
        LOCFRAME ISTACK, 2, STACK
        LOCFRAME PSTACK, 0, STACK
        LOCFRAME XSTACK, 0, STACK
        LOCFRAME IOVERLAY, 0, STATIC
        LOCFRAME DOVERLAY, 0, STATIC
        ARGFRAME ISTACK, 2, STACK
        ARGFRAME PSTACK, 0, STACK
        ARGFRAME XSTACK, 0, STACK
        ARGFRAME IOVERLAY, 0, STATIC
        ARGFRAME DOVERLAY, 0, STATIC
        FUNCALL osalInitTasks, macTaskInit
        LOCFRAME ISTACK, 2, STACK
        LOCFRAME PSTACK, 0, STACK
        LOCFRAME XSTACK, 0, STACK
        LOCFRAME IOVERLAY, 0, STATIC
        LOCFRAME DOVERLAY, 0, STATIC
        ARGFRAME ISTACK, 2, STACK
        ARGFRAME PSTACK, 0, STACK
        ARGFRAME XSTACK, 0, STACK
        ARGFRAME IOVERLAY, 0, STATIC
        ARGFRAME DOVERLAY, 0, STATIC
        FUNCALL osalInitTasks, nwk_init
        LOCFRAME ISTACK, 2, STACK
        LOCFRAME PSTACK, 0, STACK
        LOCFRAME XSTACK, 0, STACK
        LOCFRAME IOVERLAY, 0, STATIC
        LOCFRAME DOVERLAY, 0, STATIC
        ARGFRAME ISTACK, 2, STACK
        ARGFRAME PSTACK, 0, STACK
        ARGFRAME XSTACK, 0, STACK
        ARGFRAME IOVERLAY, 0, STATIC
        ARGFRAME DOVERLAY, 0, STATIC
        FUNCALL osalInitTasks, Hal_Init
        LOCFRAME ISTACK, 2, STACK
        LOCFRAME PSTACK, 0, STACK
        LOCFRAME XSTACK, 0, STACK
        LOCFRAME IOVERLAY, 0, STATIC
        LOCFRAME DOVERLAY, 0, STATIC
        ARGFRAME ISTACK, 2, STACK
        ARGFRAME PSTACK, 0, STACK
        ARGFRAME XSTACK, 0, STACK
        ARGFRAME IOVERLAY, 0, STATIC
        ARGFRAME DOVERLAY, 0, STATIC
        FUNCALL osalInitTasks, APS_Init
        LOCFRAME ISTACK, 2, STACK
        LOCFRAME PSTACK, 0, STACK
        LOCFRAME XSTACK, 0, STACK
        LOCFRAME IOVERLAY, 0, STATIC
        LOCFRAME DOVERLAY, 0, STATIC
        ARGFRAME ISTACK, 2, STACK
        ARGFRAME PSTACK, 0, STACK
        ARGFRAME XSTACK, 0, STACK
        ARGFRAME IOVERLAY, 0, STATIC
        ARGFRAME DOVERLAY, 0, STATIC
        FUNCALL osalInitTasks, APSF_Init
        LOCFRAME ISTACK, 2, STACK
        LOCFRAME PSTACK, 0, STACK
        LOCFRAME XSTACK, 0, STACK
        LOCFRAME IOVERLAY, 0, STATIC
        LOCFRAME DOVERLAY, 0, STATIC
        ARGFRAME ISTACK, 2, STACK
        ARGFRAME PSTACK, 0, STACK
        ARGFRAME XSTACK, 0, STACK
        ARGFRAME IOVERLAY, 0, STATIC
        ARGFRAME DOVERLAY, 0, STATIC
        FUNCALL osalInitTasks, ZDApp_Init
        LOCFRAME ISTACK, 2, STACK
        LOCFRAME PSTACK, 0, STACK
        LOCFRAME XSTACK, 0, STACK
        LOCFRAME IOVERLAY, 0, STATIC
        LOCFRAME DOVERLAY, 0, STATIC
        ARGFRAME ISTACK, 2, STACK
        ARGFRAME PSTACK, 0, STACK
        ARGFRAME XSTACK, 0, STACK
        ARGFRAME IOVERLAY, 0, STATIC
        ARGFRAME DOVERLAY, 0, STATIC
        FUNCALL osalInitTasks, ZDNwkMgr_Init
        LOCFRAME ISTACK, 2, STACK
        LOCFRAME PSTACK, 0, STACK
        LOCFRAME XSTACK, 0, STACK
        LOCFRAME IOVERLAY, 0, STATIC
        LOCFRAME DOVERLAY, 0, STATIC
        ARGFRAME ISTACK, 2, STACK
        ARGFRAME PSTACK, 0, STACK
        ARGFRAME XSTACK, 0, STACK
        ARGFRAME IOVERLAY, 0, STATIC
        ARGFRAME DOVERLAY, 0, STATIC
        FUNCALL osalInitTasks, GenericApp_Init
        LOCFRAME ISTACK, 2, STACK
        LOCFRAME PSTACK, 0, STACK
        LOCFRAME XSTACK, 0, STACK
        LOCFRAME IOVERLAY, 0, STATIC
        LOCFRAME DOVERLAY, 0, STATIC
        ARGFRAME ISTACK, 2, STACK
        ARGFRAME PSTACK, 0, STACK
        ARGFRAME XSTACK, 0, STACK
        ARGFRAME IOVERLAY, 0, STATIC
        ARGFRAME DOVERLAY, 0, STATIC
        PUSH    DPL
        CFI DPL0 Frame(CFA_SP, 4)
        CFI CFA_SP SP+-4
        PUSH    DPH
        CFI DPH0 Frame(CFA_SP, 5)
        CFI CFA_SP SP+-5
        ; Saved register size: 2
        ; Auto size: 0
//   48   uint8 taskID = 0;
//   49   //分配内存空间
//   50   tasksEvents = (uint16 *)osal_mem_alloc( sizeof( uint16 ) * tasksCnt);
        ; Setup parameters for call to function osal_mem_alloc
        MOV     R2,#0x10
        MOV     R3,#0x0
        LCALL   ??osal_mem_alloc?relay
        MOV     DPTR,#tasksEvents
        MOV     A,R2
        MOVX    @DPTR,A
        INC     DPTR
        MOV     A,R3
        MOVX    @DPTR,A
//   51   osal_memset( tasksEvents, 0, (sizeof( uint16 ) * tasksCnt));
        ; Setup parameters for call to function osal_memset
        MOV     R4,#0x10
        MOV     R5,#0x0
        MOV     R1,#0x0
        LCALL   ??osal_memset?relay
//   52 
//   53   macTaskInit( taskID++ );//MAC层的任务ID号
        ; Setup parameters for call to function macTaskInit
        MOV     R1,#0x0
        LCALL   ??macTaskInit?relay
//   54   nwk_init( taskID++ );   //网络ID分配
        ; Setup parameters for call to function nwk_init
        MOV     R1,#0x1
        LCALL   ??nwk_init?relay
//   55   Hal_Init( taskID++ );   //硬件ID分配
        ; Setup parameters for call to function Hal_Init
        MOV     R1,#0x2
        LCALL   ??Hal_Init?relay
//   56 #if defined( MT_TASK )
//   57   MT_TaskInit( taskID++ );
//   58 #endif
//   59   APS_Init( taskID++ );
        ; Setup parameters for call to function APS_Init
        MOV     R1,#0x3
        LCALL   ??APS_Init?relay
//   60 #if defined ( ZIGBEE_FRAGMENTATION )
//   61   APSF_Init( taskID++ );
        ; Setup parameters for call to function APSF_Init
        MOV     R1,#0x4
        LCALL   ??APSF_Init?relay
//   62 #endif
//   63   ZDApp_Init( taskID++ );
        ; Setup parameters for call to function ZDApp_Init
        MOV     R1,#0x5
        LCALL   ??ZDApp_Init?relay
//   64 #if defined ( ZIGBEE_FREQ_AGILITY ) || defined ( ZIGBEE_PANID_CONFLICT )
//   65   ZDNwkMgr_Init( taskID++ );
        ; Setup parameters for call to function ZDNwkMgr_Init
        MOV     R1,#0x6
        LCALL   ??ZDNwkMgr_Init?relay
//   66 #endif
//   67   GenericApp_Init( taskID );//自己任务初始化函数
        ; Setup parameters for call to function GenericApp_Init
        MOV     R1,#0x7
        LCALL   ??GenericApp_Init?relay
//   68 }
        POP     DPH
        CFI DPH0 SameValue
        CFI CFA_SP SP+-4
        POP     DPL
        CFI DPL0 SameValue
        CFI CFA_SP SP+-3
        LJMP    ?BRET
        CFI EndBlock cfiBlock0

        RSEG BANK_RELAYS:CODE:REORDER:NOROOT(0)
??osalInitTasks?relay:
        LCALL   ?BDISPATCH
        DATA
        DC24    osalInitTasks

        END
//   69 
//   70 /*********************************************************************
//   71 *********************************************************************/
// 
// 75 bytes in segment BANKED_CODE
//  6 bytes in segment BANK_RELAYS
// 17 bytes in segment XDATA_ROM_C
//  2 bytes in segment XDATA_Z
// 
// 81 bytes of CODE  memory
// 17 bytes of CONST memory
//  2 bytes of XDATA memory
//
//Errors: none
//Warnings: none
