###############################################################################
#                                                                             #
# IAR C/C++ Compiler V8.10.3.10338/W32 for 8051         18/Feb/2016  20:17:21 #
# Copyright 2004-2011 IAR Systems AB.                                         #
#                                                                             #
#    Core               =  plain                                              #
#    Code model         =  banked                                             #
#    Data model         =  large                                              #
#    Calling convention =  xdata reentrant                                    #
#    Constant location  =  data_rom                                           #
#    Dptr setup         =  1,16                                               #
#    Source file        =  G:\Agriculture_Work\ZStack-2.5.1a\Projects\zstack\ #
#                          Samples\Photovoltaic\Source\Router&&Enddevice.c    #
#    Command line       =  -f G:\Agriculture_Work\ZStack-2.5.1a\Projects\zsta #
#                          ck\Samples\Photovoltaic\CC2530DB\..\..\..\Tools\CC #
#                          2530DB\f8wRouter.cfg (-DCPU32MHZ                   #
#                          -DROOT=__near_func -DMAC_CFG_APP_PENDING_QUEUE=TRU #
#                          E -DMAC_CFG_TX_DATA_MAX=5 -DMAC_CFG_TX_MAX=8       #
#                          -DMAC_CFG_RX_MAX=5 -DRTR_NWK) -f                   #
#                          G:\Agriculture_Work\ZStack-2.5.1a\Projects\zstack\ #
#                          Samples\Photovoltaic\CC2530DB\..\..\..\Tools\CC253 #
#                          0DB\f8wConfig.cfg (-DZIGBEEPRO -DSECURE=0          #
#                          -DZG_SECURE_DYNAMIC=0 -DREFLECTOR                  #
#                          -DDEFAULT_CHANLIST=0x02000000                      #
#                          -DZDAPP_CONFIG_PAN_ID=0xFFF1                       #
#                          -DNWK_START_DELAY=100 -DEXTENDED_JOINING_RANDOM_MA #
#                          SK=0x007F -DBEACON_REQUEST_DELAY=100               #
#                          -DBEACON_REQ_DELAY_MASK=0x00FF                     #
#                          -DLINK_STATUS_JITTER_MASK=0x007F                   #
#                          -DROUTE_EXPIRY_TIME=30 -DAPSC_ACK_WAIT_DURATION_PO #
#                          LLED=3000 -DNWK_INDIRECT_MSG_TIMEOUT=7             #
#                          -DMAX_RREQ_ENTRIES=8 -DAPSC_MAX_FRAME_RETRIES=3    #
#                          -DNWK_MAX_DATA_RETRIES=2                           #
#                          -DMAX_POLL_FAILURE_RETRIES=2 -DMAX_BCAST=9         #
#                          -DAPS_MAX_GROUPS=16 -DMAX_RTG_ENTRIES=40           #
#                          -DNWK_MAX_BINDING_ENTRIES=4                        #
#                          -DMAX_BINDING_CLUSTER_IDS=4 "-DDEFAULT_KEY={0x01,  #
#                          0x03, 0x05, 0x07, 0x09, 0x0B, 0x0D, 0x0F, 0x00,    #
#                          0x02, 0x04, 0x06, 0x08, 0x0A, 0x0C, 0x0D}"         #
#                          -DMAC_MAX_FRAME_SIZE=116                           #
#                          -DZDNWKMGR_MIN_TRANSMISSIONS=20 "-DCONST=const     #
#                          __code" -DGENERIC=__generic                        #
#                          -DRFD_RCVC_ALWAYS_ON=FALSE -DPOLL_RATE=1000        #
#                          -DQUEUED_POLL_RATE=100 -DRESPONSE_POLL_RATE=100)   #
#                          -DREJOIN_POLL_RATE=440 G:\Agriculture_Work\ZStack- #
#                          2.5.1a\Projects\zstack\Samples\Photovoltaic\Source #
#                          \Router&&Enddevice.c -D ZTOOL_P1 -D NWK_AUTO_POLL  #
#                          -D METEOROLOGICAL -lC G:\Agriculture_Work\ZStack-2 #
#                          .5.1a\Projects\zstack\Samples\Photovoltaic\CC2530D #
#                          B\RouterEB\List\ -lA G:\Agriculture_Work\ZStack-2. #
#                          5.1a\Projects\zstack\Samples\Photovoltaic\CC2530DB #
#                          \RouterEB\List\ --diag_suppress Pe001,Pa010 -o     #
#                          G:\Agriculture_Work\ZStack-2.5.1a\Projects\zstack\ #
#                          Samples\Photovoltaic\CC2530DB\RouterEB\Obj\ -e     #
#                          --no_code_motion --debug --core=plain --dptr=16,1  #
#                          --data_model=large --code_model=banked             #
#                          --calling_convention=xdata_reentrant               #
#                          --place_constants=data_rom --nr_virtual_regs 16    #
#                          -I G:\Agriculture_Work\ZStack-2.5.1a\Projects\zsta #
#                          ck\Samples\Photovoltaic\CC2530DB\ -I               #
#                          G:\Agriculture_Work\ZStack-2.5.1a\Projects\zstack\ #
#                          Samples\Photovoltaic\CC2530DB\..\Source\ -I        #
#                          G:\Agriculture_Work\ZStack-2.5.1a\Projects\zstack\ #
#                          Samples\Photovoltaic\CC2530DB\..\..\..\ZMain\TI253 #
#                          0DB\ -I G:\Agriculture_Work\ZStack-2.5.1a\Projects #
#                          \zstack\Samples\Photovoltaic\CC2530DB\..\..\..\..\ #
#                          ..\Components\hal\include\ -I                      #
#                          G:\Agriculture_Work\ZStack-2.5.1a\Projects\zstack\ #
#                          Samples\Photovoltaic\CC2530DB\..\..\..\..\..\Compo #
#                          nents\hal\target\CC2530EB\ -I                      #
#                          G:\Agriculture_Work\ZStack-2.5.1a\Projects\zstack\ #
#                          Samples\Photovoltaic\CC2530DB\..\..\..\..\..\Compo #
#                          nents\mac\include\ -I G:\Agriculture_Work\ZStack-2 #
#                          .5.1a\Projects\zstack\Samples\Photovoltaic\CC2530D #
#                          B\..\..\..\..\..\Components\mac\high_level\ -I     #
#                          G:\Agriculture_Work\ZStack-2.5.1a\Projects\zstack\ #
#                          Samples\Photovoltaic\CC2530DB\..\..\..\..\..\Compo #
#                          nents\mac\low_level\srf04\ -I                      #
#                          G:\Agriculture_Work\ZStack-2.5.1a\Projects\zstack\ #
#                          Samples\Photovoltaic\CC2530DB\..\..\..\..\..\Compo #
#                          nents\mac\low_level\srf04\single_chip\ -I          #
#                          G:\Agriculture_Work\ZStack-2.5.1a\Projects\zstack\ #
#                          Samples\Photovoltaic\CC2530DB\..\..\..\..\..\Compo #
#                          nents\mt\ -I G:\Agriculture_Work\ZStack-2.5.1a\Pro #
#                          jects\zstack\Samples\Photovoltaic\CC2530DB\..\..\. #
#                          .\..\..\Components\osal\include\ -I                #
#                          G:\Agriculture_Work\ZStack-2.5.1a\Projects\zstack\ #
#                          Samples\Photovoltaic\CC2530DB\..\..\..\..\..\Compo #
#                          nents\services\saddr\ -I                           #
#                          G:\Agriculture_Work\ZStack-2.5.1a\Projects\zstack\ #
#                          Samples\Photovoltaic\CC2530DB\..\..\..\..\..\Compo #
#                          nents\services\sdata\ -I                           #
#                          G:\Agriculture_Work\ZStack-2.5.1a\Projects\zstack\ #
#                          Samples\Photovoltaic\CC2530DB\..\..\..\..\..\Compo #
#                          nents\stack\af\ -I G:\Agriculture_Work\ZStack-2.5. #
#                          1a\Projects\zstack\Samples\Photovoltaic\CC2530DB\. #
#                          .\..\..\..\..\Components\stack\nwk\ -I             #
#                          G:\Agriculture_Work\ZStack-2.5.1a\Projects\zstack\ #
#                          Samples\Photovoltaic\CC2530DB\..\..\..\..\..\Compo #
#                          nents\stack\sapi\ -I G:\Agriculture_Work\ZStack-2. #
#                          5.1a\Projects\zstack\Samples\Photovoltaic\CC2530DB #
#                          \..\..\..\..\..\Components\stack\sec\ -I           #
#                          G:\Agriculture_Work\ZStack-2.5.1a\Projects\zstack\ #
#                          Samples\Photovoltaic\CC2530DB\..\..\..\..\..\Compo #
#                          nents\stack\sys\ -I G:\Agriculture_Work\ZStack-2.5 #
#                          .1a\Projects\zstack\Samples\Photovoltaic\CC2530DB\ #
#                          ..\..\..\..\..\Components\stack\zdo\ -I            #
#                          G:\Agriculture_Work\ZStack-2.5.1a\Projects\zstack\ #
#                          Samples\Photovoltaic\CC2530DB\..\..\..\..\..\Compo #
#                          nents\zmac\ -I G:\Agriculture_Work\ZStack-2.5.1a\P #
#                          rojects\zstack\Samples\Photovoltaic\CC2530DB\..\.. #
#                          \..\..\..\Components\zmac\f8w\ -Ohz                #
#                          --require_prototypes                               #
#    List file          =  G:\Agriculture_Work\ZStack-2.5.1a\Projects\zstack\ #
#                          Samples\Photovoltaic\CC2530DB\RouterEB\List\Router #
#                          &&Enddevice.lst                                    #
#    Object file        =  G:\Agriculture_Work\ZStack-2.5.1a\Projects\zstack\ #
#                          Samples\Photovoltaic\CC2530DB\RouterEB\Obj\Router& #
#                          &Enddevice.r51                                     #
#                                                                             #
#                                                                             #
###############################################################################

G:\Agriculture_Work\ZStack-2.5.1a\Projects\zstack\Samples\Photovoltaic\Source\Router&&Enddevice.c
      1          #include "OSAL.h"
      2          #include "AF.h"
      3          #include "ZDApp.h"
      4          #include "ZDObject.h"
      5          #include "ZDProfile.h"
      6          
      7          #include "Common.h"
      8          #include "DebugTrace.h"
      9          #include <assert.h>
     10          
     11          #if !defined( WIN32 )
     12            #include "OnBoard.h"

   \                                 In  segment SFR_AN, at 0x80
   \   union <unnamed> volatile __sfr _A_P0
   \                     _A_P0:
   \   000000                DS 1

   \                                 In  segment SFR_AN, at 0xfd
   \   unsigned char volatile __sfr P0DIR
   \                     P0DIR:
   \   000000                DS 1
     13          #endif
     14          
     15          /* HAL */
     16          #include "hal_lcd.h"
     17          #include "hal_led.h"
     18          #include "hal_key.h"
     19          #include "hal_uart.h"
     20          
     21          
     22          /**Add By  Yao Bin ***/
     23          #if !defined( SERIAL_APP_TX_MAX )
     24          #define SERIAL_APP_TX_MAX  64
     25          #endif
     26          #if !defined( SERIAL_APP_RADIO_MAX )
     27          #define SERIAL_APP_RADIO_MAX  64
     28          #endif
     29          

   \                                 In  segment XDATA_I, align 1, keep-with-next
     30          byte send_modbus_data[8]={Modbus_Addr,0x03};
   \                     send_modbus_data:
   \   000000                DS 8
   \   000008                REQUIRE `?<Initializer for send_modbus_data>`
   \   000008                REQUIRE __INIT_XDATA_I
     31          #ifdef METEOROLOGICAL
     32            #define TOTAL_REGISTER_NUM 22
     33            #define REGISTER_NUM 11
     34            #define START_ADDR 0x0000
     35            #define DATA_TYPE 1
     36          #elif PV_COMBINER
     37            #define TOTAL_REGISTER_NUM 48
     38            #define REGISTER_NUM 12
     39            #define START_ADDR 0x1000
     40            #define DATA_TYPE 2
     41          #else
     42            assert(0);//需要定义 PV_COMBINER or METEOROLOGICAL
     43          #endif

   \                                 In  segment XDATA_Z, align 1, keep-with-next
     44          byte RxBuf[SERIAL_APP_TX_MAX+1];
   \                     RxBuf:
   \   000000                DS 65
   \   000041                REQUIRE __INIT_XDATA_Z

   \                                 In  segment XDATA_Z, align 1, keep-with-next
     45          byte RadioBuf[SERIAL_APP_RADIO_MAX+1];
   \                     RadioBuf:
   \   000000                DS 65
   \   000041                REQUIRE __INIT_XDATA_Z

   \                                 In  segment XDATA_Z, align 1, keep-with-next
     46          static uint8 RadioHead_TxLen=0;
   \                     RadioHead_TxLen:
   \   000000                DS 1
   \   000001                REQUIRE __INIT_XDATA_Z

   \                                 In  segment XDATA_Z, align 1, keep-with-next
     47          static uint8 RadioApp_TxLen=0;
   \                     RadioApp_TxLen:
   \   000000                DS 1
   \   000001                REQUIRE __INIT_XDATA_Z

   \                                 In  segment XDATA_Z, align 1, keep-with-next
     48          static uint8 SerialApp_TxLen;
   \                     SerialApp_TxLen:
   \   000000                DS 1
   \   000001                REQUIRE __INIT_XDATA_Z

   \                                 In  segment XDATA_Z, align 1, keep-with-next
     49          byte *eui64;
   \                     eui64:
   \   000000                DS 2
   \   000002                REQUIRE __INIT_XDATA_Z

   \                                 In  segment XDATA_I, align 1, keep-with-next
     50          static uint8 group=TOTAL_REGISTER_NUM/REGISTER_NUM;
   \                     group:
   \   000000                DS 1
   \   000001                REQUIRE `?<Initializer for group>`
   \   000001                REQUIRE __INIT_XDATA_I

   \                                 In  segment XDATA_Z, align 1, keep-with-next
     51          uint8 group_index;
   \                     group_index:
   \   000000                DS 1
   \   000001                REQUIRE __INIT_XDATA_Z
     52          /**END**/
     53          

   \                                 In  segment XDATA_ROM_C, align 1
     54          const cId_t GenericApp_ClusterList[GENERICAPP_MAX_CLUSTERS] =
   \                     GenericApp_ClusterList:
   \   000000   0100         DW 1
     55          {
     56            GENERICAPP_CLUSTERID
     57          };
     58          

   \                                 In  segment XDATA_ROM_C, align 1
     59          const SimpleDescriptionFormat_t GenericApp_SimpleDesc =
   \                     GenericApp_SimpleDesc:
   \   000000   0A           DB 10
   \   000001   040F         DW 3844
   \   000003   0100         DW 1
   \   000005   00           DB 0
   \   000006   01           DB 1
   \   000007   ....         DW GenericApp_ClusterList
   \   000009   01           DB 1
   \   00000A   ....         DW GenericApp_ClusterList
     60          {
     61            GENERICAPP_ENDPOINT,              //  int Endpoint;
     62            GENERICAPP_PROFID,                //  uint16 AppProfId[2];
     63            GENERICAPP_DEVICEID,              //  uint16 AppDeviceId[2];
     64            GENERICAPP_DEVICE_VERSION,        //  int   AppDevVer:4;
     65            GENERICAPP_FLAGS,                 //  int   AppFlags:4; 
     66            GENERICAPP_MAX_CLUSTERS,          //  byte  AppNumInClusters;
     67            (cId_t *)GenericApp_ClusterList,  //  byte *pAppInClusterList;
     68            GENERICAPP_MAX_CLUSTERS,          //  byte  AppNumInClusters;
     69            (cId_t *)GenericApp_ClusterList   //  byte *pAppInClusterList;
     70          };
     71          

   \                                 In  segment XDATA_Z, align 1, keep-with-next
     72          endPointDesc_t GenericApp_epDesc;
   \                     GenericApp_epDesc:
   \   000000                DS 6
   \   000006                REQUIRE __INIT_XDATA_Z

   \                                 In  segment XDATA_Z, align 1, keep-with-next
     73          byte GenericApp_TaskID;
   \                     GenericApp_TaskID:
   \   000000                DS 1
   \   000001                REQUIRE __INIT_XDATA_Z

   \                                 In  segment XDATA_Z, align 1, keep-with-next
     74          byte GenericApp_TransID;
   \                     GenericApp_TransID:
   \   000000                DS 1
   \   000001                REQUIRE __INIT_XDATA_Z

   \                                 In  segment XDATA_Z, align 1, keep-with-next
     75          devStates_t GenericApp_NwkState;
   \                     GenericApp_NwkState:
   \   000000                DS 1
   \   000001                REQUIRE __INIT_XDATA_Z
     76          
     77          //void GenericApp_MessageMSGCB( afIncomingMSGPacket_t *pckt );
     78          void GenericApp_SendTheMessage(byte *RxBuf,uint8 len);
     79          void rxCB(uint8 port,uint8 event);
     80          uint16 CRC16_Check(uint8 *Pushdata,uint8 length);
     81          void modus_first_deal(byte *RxBuf,uint8 len);
     82          void modus_second_deal(byte *RxBuf,uint8 len);
     83          void modus_third_deal(byte *RxBuf,uint8 len);
     84          

   \                                 In  segment BANKED_CODE, align 1, keep-with-next
     85          void GenericApp_Init( byte task_id )
   \                     GenericApp_Init:
     86          { 
   \   000000   74F5         MOV     A,#-0xb
   \   000002   12....       LCALL   ?BANKED_ENTER_XDATA
   \   000005                ; Saved register size: 11
   \   000005                ; Auto size: 29
   \   000005   74E3         MOV     A,#-0x1d
   \   000007   12....       LCALL   ?ALLOC_XSTACK8
   \   00000A   E9           MOV     A,R1
   \   00000B   FE           MOV     R6,A
     87          /***Add By Bin Yao for UART test****/
     88            eui64=NLME_GetExtAddr();//get the EUI-64 Address
   \   00000C                ; Setup parameters for call to function NLME_GetExtAddr
   \   00000C   12....       LCALL   ??NLME_GetExtAddr?relay
   \   00000F   90....       MOV     DPTR,#eui64
   \   000012   EA           MOV     A,R2
   \   000013   F0           MOVX    @DPTR,A
   \   000014   A3           INC     DPTR
   \   000015   EB           MOV     A,R3
   \   000016   F0           MOVX    @DPTR,A
     89            osal_memcpy(RadioBuf,eui64,8);
   \   000017                ; Setup parameters for call to function osal_memcpy
   \   000017   90....       MOV     DPTR,#eui64
   \   00001A   E0           MOVX    A,@DPTR
   \   00001B   F5..         MOV     ?V0 + 0,A
   \   00001D   A3           INC     DPTR
   \   00001E   E0           MOVX    A,@DPTR
   \   00001F   F5..         MOV     ?V0 + 1,A
   \   000021   75..00       MOV     ?V0 + 2,#0x0
   \   000024   78..         MOV     R0,#?V0 + 0
   \   000026   12....       LCALL   ?PUSH_XSTACK_I_THREE
   \   000029   7C08         MOV     R4,#0x8
   \   00002B   7D00         MOV     R5,#0x0
   \   00002D   7A..         MOV     R2,#RadioBuf & 0xff
   \   00002F   7B..         MOV     R3,#(RadioBuf >> 8) & 0xff
   \   000031   12....       LCALL   ??osal_memcpy?relay
   \   000034   7403         MOV     A,#0x3
   \   000036   12....       LCALL   ?DEALLOC_XSTACK8
     90            RadioHead_TxLen+=8;
   \   000039   90....       MOV     DPTR,#RadioHead_TxLen
   \   00003C   E0           MOVX    A,@DPTR
   \   00003D   2408         ADD     A,#0x8
   \   00003F   F0           MOVX    @DPTR,A
     91            RadioBuf[RadioHead_TxLen++]=DATA_TYPE;
   \   000040   12....       LCALL   ?Subroutine3 & 0xFFFF
   \                     ??CrossCallReturnLabel_3:
   \   000043   7401         MOV     A,#0x1
   \   000045   F0           MOVX    @DPTR,A
   \   000046   90....       MOV     DPTR,#RadioHead_TxLen
   \   000049   E0           MOVX    A,@DPTR
   \   00004A   04           INC     A
   \   00004B   12....       LCALL   ?Subroutine2 & 0xFFFF
     92            halUARTCfg_t uartConfig;
     93            uartConfig.configured           = TRUE;              // 2x30 don't care - see uart driver.
   \                     ??CrossCallReturnLabel_0:
   \   00004E   7401         MOV     A,#0x1
   \   000050   F0           MOVX    @DPTR,A
     94            uartConfig.baudRate             = HAL_UART_BR_9600;
   \   000051   12....       LCALL   ?XSTACK_DISP0_8
   \   000054   E4           CLR     A
   \   000055   F0           MOVX    @DPTR,A
     95            uartConfig.flowControl          = FALSE;
   \   000056   7402         MOV     A,#0x2
   \   000058   12....       LCALL   ?XSTACK_DISP0_8
   \   00005B   E4           CLR     A
   \   00005C   F0           MOVX    @DPTR,A
     96            uartConfig.flowControlThreshold = 64;   // 2x30 don't care - see uart driver.
   \   00005D   7403         MOV     A,#0x3
   \   00005F   12....       LCALL   ?XSTACK_DISP0_8
   \   000062   7440         MOV     A,#0x40
   \   000064   F0           MOVX    @DPTR,A
   \   000065   A3           INC     DPTR
   \   000066   E4           CLR     A
   \   000067   F0           MOVX    @DPTR,A
     97            uartConfig.rx.maxBufSize        = 128;  // 2x30 don't care - see uart driver.
   \   000068   740A         MOV     A,#0xa
   \   00006A   12....       LCALL   ?XSTACK_DISP0_8
   \   00006D   7480         MOV     A,#-0x80
   \   00006F   F0           MOVX    @DPTR,A
   \   000070   A3           INC     DPTR
   \   000071   E4           CLR     A
   \   000072   F0           MOVX    @DPTR,A
     98            uartConfig.tx.maxBufSize        = 128;  // 2x30 don't care - see uart driver.
   \   000073   7412         MOV     A,#0x12
   \   000075   12....       LCALL   ?XSTACK_DISP0_8
   \   000078   7480         MOV     A,#-0x80
   \   00007A   F0           MOVX    @DPTR,A
   \   00007B   A3           INC     DPTR
   \   00007C   E4           CLR     A
   \   00007D   F0           MOVX    @DPTR,A
     99            uartConfig.idleTimeout          = 6;    // 2x30 don't care - see uart driver.
   \   00007E   7405         MOV     A,#0x5
   \   000080   12....       LCALL   ?XSTACK_DISP0_8
   \   000083   7406         MOV     A,#0x6
   \   000085   F0           MOVX    @DPTR,A
    100            uartConfig.intEnable            = TRUE; // 2x30 don't care - see uart driver.
   \   000086   7416         MOV     A,#0x16
   \   000088   12....       LCALL   ?XSTACK_DISP0_8
   \   00008B   7401         MOV     A,#0x1
   \   00008D   F0           MOVX    @DPTR,A
    101            uartConfig.callBackFunc         = rxCB;
   \   00008E   741B         MOV     A,#0x1b
   \   000090   12....       LCALL   ?XSTACK_DISP0_8
   \   000093   74..         MOV     A,#??rxCB?relay & 0xff
   \   000095   F0           MOVX    @DPTR,A
   \   000096   A3           INC     DPTR
   \   000097   74..         MOV     A,#(??rxCB?relay >> 8) & 0xff
   \   000099   12....       LCALL   ?Subroutine2 & 0xFFFF
    102            HalUARTOpen (0, &uartConfig);
   \                     ??CrossCallReturnLabel_1:
   \   00009C   AA82         MOV     R2,DPL
   \   00009E   AB83         MOV     R3,DPH
   \   0000A0   7900         MOV     R1,#0x0
   \   0000A2   12....       LCALL   ??HalUARTOpen?relay
    103            
    104            IO_OUTPUT_485;                //设置485/IO口为输出
   \   0000A5   43FD80       ORL     0xfd,#0x80
    105            RECV_485;//receive
   \   0000A8   C287         CLR     0x80.7
    106            group_index=0;
   \   0000AA   90....       MOV     DPTR,#group_index
   \   0000AD   E4           CLR     A
   \   0000AE   F0           MOVX    @DPTR,A
    107          /**END*****/  
    108            
    109            GenericApp_TaskID = task_id;
   \   0000AF   EE           MOV     A,R6
   \   0000B0   90....       MOV     DPTR,#GenericApp_TaskID
   \   0000B3   F0           MOVX    @DPTR,A
    110            GenericApp_NwkState=DEV_INIT;
   \   0000B4   90....       MOV     DPTR,#GenericApp_NwkState
   \   0000B7   7401         MOV     A,#0x1
   \   0000B9   F0           MOVX    @DPTR,A
    111            GenericApp_TransID = 0;
   \   0000BA   90....       MOV     DPTR,#GenericApp_TransID
   \   0000BD   E4           CLR     A
   \   0000BE   F0           MOVX    @DPTR,A
    112              
    113            GenericApp_epDesc.endPoint = GENERICAPP_ENDPOINT;
   \   0000BF   90....       MOV     DPTR,#GenericApp_epDesc
   \   0000C2   740A         MOV     A,#0xa
   \   0000C4   F0           MOVX    @DPTR,A
    114            GenericApp_epDesc.task_id = &GenericApp_TaskID;
   \   0000C5   A3           INC     DPTR
   \   0000C6   74..         MOV     A,#GenericApp_TaskID & 0xff
   \   0000C8   F0           MOVX    @DPTR,A
   \   0000C9   A3           INC     DPTR
   \   0000CA   74..         MOV     A,#(GenericApp_TaskID >> 8) & 0xff
   \   0000CC   F0           MOVX    @DPTR,A
    115            GenericApp_epDesc.simpleDesc= (SimpleDescriptionFormat_t *)&GenericApp_SimpleDesc;
   \   0000CD   A3           INC     DPTR
   \   0000CE   74..         MOV     A,#GenericApp_SimpleDesc & 0xff
   \   0000D0   F0           MOVX    @DPTR,A
   \   0000D1   A3           INC     DPTR
   \   0000D2   74..         MOV     A,#(GenericApp_SimpleDesc >> 8) & 0xff
   \   0000D4   F0           MOVX    @DPTR,A
    116            GenericApp_epDesc.latencyReq = noLatencyReqs;
   \   0000D5   A3           INC     DPTR
   \   0000D6   E4           CLR     A
   \   0000D7   F0           MOVX    @DPTR,A
    117            afRegister( &GenericApp_epDesc ); 
   \   0000D8                ; Setup parameters for call to function afRegister
   \   0000D8   7A..         MOV     R2,#GenericApp_epDesc & 0xff
   \   0000DA   7B..         MOV     R3,#(GenericApp_epDesc >> 8) & 0xff
   \   0000DC   12....       LCALL   ??afRegister?relay
    118          }
   \   0000DF   741D         MOV     A,#0x1d
   \   0000E1   12....       LCALL   ?DEALLOC_XSTACK8
   \   0000E4                REQUIRE ?Subroutine0
   \   0000E4                REQUIRE P0DIR
   \   0000E4                REQUIRE _A_P0
   \   0000E4                ; // Fall through to label ?Subroutine0

   \                                 In  segment BANKED_CODE, align 1, keep-with-next
   \                     ?Subroutine0:
   \   000000   7F03         MOV     R7,#0x3
   \   000002   02....       LJMP    ?BANKED_LEAVE_XDATA

   \                                 In  segment BANKED_CODE, align 1, keep-with-next
   \                     ?Subroutine2:
   \   000000   F0           MOVX    @DPTR,A
   \   000001                ; Setup parameters for call to function HalUARTOpen
   \   000001   85..82       MOV     DPL,?XSP + 0
   \   000004   85..83       MOV     DPH,?XSP + 1
   \   000007   22           RET

   \                                 In  segment BANKED_CODE, align 1, keep-with-next
   \                     ?Subroutine3:
   \   000000   F8           MOV     R0,A
   \   000001   74..         MOV     A,#RadioBuf & 0xff
   \   000003   28           ADD     A,R0
   \   000004   F582         MOV     DPL,A
   \   000006   74..         MOV     A,#(RadioBuf >> 8) & 0xff
   \   000008   3400         ADDC    A,#0x0
   \   00000A   F583         MOV     DPH,A
   \   00000C   22           RET
    119          

   \                                 In  segment BANKED_CODE, align 1, keep-with-next
    120          UINT16 GenericApp_ProcessEvent( byte task_id, UINT16 events )
   \                     GenericApp_ProcessEvent:
    121          {
   \   000000   74F4         MOV     A,#-0xc
   \   000002   12....       LCALL   ?BANKED_ENTER_XDATA
   \   000005                ; Saved register size: 12
   \   000005                ; Auto size: 0
   \   000005   EA           MOV     A,R2
   \   000006   FE           MOV     R6,A
   \   000007   EB           MOV     A,R3
   \   000008   FF           MOV     R7,A
    122              afIncomingMSGPacket_t *MSGpkt;
    123              if ( events & SYS_EVENT_MSG )
   \   000009   5480         ANL     A,#0x80
   \   00000B   605A         JZ      ??GenericApp_ProcessEvent_0
    124              {
    125                  MSGpkt = (afIncomingMSGPacket_t *)osal_msg_receive( GenericApp_TaskID );
   \   00000D                ; Setup parameters for call to function osal_msg_receive
   \   00000D   803E         SJMP    ??GenericApp_ProcessEvent_1
    126                  while ( MSGpkt )
    127                  {
    128                      switch ( MSGpkt->hdr.event )
   \                     ??GenericApp_ProcessEvent_2:
   \   00000F   85..82       MOV     DPL,?V0 + 0
   \   000012   85..83       MOV     DPH,?V0 + 1
   \   000015   E0           MOVX    A,@DPTR
   \   000016   64D1         XRL     A,#0xd1
   \   000018   702C         JNZ     ??GenericApp_ProcessEvent_3
    129                      {
    130                      case AF_INCOMING_MSG_CMD:
    131                          //GenericApp_MessageMSGCB(MSGpkt);
    132                          break;
    133                      case ZDO_STATE_CHANGE:
    134                          GenericApp_NwkState = (devStates_t)(MSGpkt->hdr.status);
   \   00001A   A3           INC     DPTR
   \   00001B   E0           MOVX    A,@DPTR
   \   00001C   90....       MOV     DPTR,#GenericApp_NwkState
   \   00001F   F0           MOVX    @DPTR,A
    135                          if(GenericApp_NwkState == DEV_ROUTER||GenericApp_NwkState == DEV_END_DEVICE)
   \   000020   6407         XRL     A,#0x7
   \   000022   6005         JZ      ??GenericApp_ProcessEvent_4
   \   000024   E0           MOVX    A,@DPTR
   \   000025   6406         XRL     A,#0x6
   \   000027   701D         JNZ     ??GenericApp_ProcessEvent_3
    136                          {
    137                            HalLedBlink(HAL_LED_2, 3, 50, 500);//Led2闪烁3次，表示组网成功.
   \                     ??GenericApp_ProcessEvent_4:
   \   000029                ; Setup parameters for call to function HalLedBlink
   \   000029   7CF4         MOV     R4,#-0xc
   \   00002B   7D01         MOV     R5,#0x1
   \   00002D   7B32         MOV     R3,#0x32
   \   00002F   7A03         MOV     R2,#0x3
   \   000031   7902         MOV     R1,#0x2
   \   000033   12....       LCALL   ??HalLedBlink?relay
    138                            osal_start_timerEx( GenericApp_TaskID,
    139                                               GENERICAPP_SEND_MSG_EVT,
    140                                               GENERICAPP_SEND_MSG_TIMEOUT );
   \   000036                ; Setup parameters for call to function osal_start_timerEx
   \   000036   7CA0         MOV     R4,#-0x60
   \   000038   7D0F         MOV     R5,#0xf
   \   00003A   7A01         MOV     R2,#0x1
   \   00003C   7B00         MOV     R3,#0x0
   \   00003E   90....       MOV     DPTR,#GenericApp_TaskID
   \   000041   E0           MOVX    A,@DPTR
   \   000042   F9           MOV     R1,A
   \   000043   12....       LCALL   ??osal_start_timerEx?relay
    141                          }
    142                          break;
    143                      default:
    144                          break;
    145                      }
    146                      osal_msg_deallocate( (uint8 *)MSGpkt );
   \                     ??GenericApp_ProcessEvent_3:
   \   000046                ; Setup parameters for call to function osal_msg_deallocate
   \   000046   AA..         MOV     R2,?V0 + 0
   \   000048   AB..         MOV     R3,?V0 + 1
   \   00004A   12....       LCALL   ??osal_msg_deallocate?relay
    147                      MSGpkt = (afIncomingMSGPacket_t *)osal_msg_receive( GenericApp_TaskID );
   \   00004D                ; Setup parameters for call to function osal_msg_receive
   \                     ??GenericApp_ProcessEvent_1:
   \   00004D   90....       MOV     DPTR,#GenericApp_TaskID
   \   000050   E0           MOVX    A,@DPTR
   \   000051   F9           MOV     R1,A
   \   000052   12....       LCALL   ??osal_msg_receive?relay
   \   000055   8A..         MOV     ?V0 + 0,R2
   \   000057   8B..         MOV     ?V0 + 1,R3
    148                  }     
   \   000059   E5..         MOV     A,?V0 + 0
   \   00005B   45..         ORL     A,?V0 + 1
   \   00005D   70B0         JNZ     ??GenericApp_ProcessEvent_2
    149                  // return unprocessed events
    150                  return (events ^ SYS_EVENT_MSG);
   \   00005F   EE           MOV     A,R6
   \   000060   FA           MOV     R2,A
   \   000061   EF           MOV     A,R7
   \   000062   6480         XRL     A,#0x80
   \                     ??GenericApp_ProcessEvent_5:
   \   000064   FB           MOV     R3,A
   \   000065   8072         SJMP    ??GenericApp_ProcessEvent_6
    151              }
    152              if ( events & GENERICAPP_SEND_MSG_EVT )
   \                     ??GenericApp_ProcessEvent_0:
   \   000067   EE           MOV     A,R6
   \   000068   A2E0         MOV     C,0xE0 /* A   */.0
   \   00006A   5069         JNC     ??GenericApp_ProcessEvent_7
    153              {
    154                // Setup to send message again
    155                osal_start_timerEx( GenericApp_TaskID,
    156                                    GENERICAPP_SEND_MSG_EVT,
    157                                  GENERICAPP_SEND_MSG_TIMEOUT );
   \   00006C                ; Setup parameters for call to function osal_start_timerEx
   \   00006C   7CA0         MOV     R4,#-0x60
   \   00006E   7D0F         MOV     R5,#0xf
   \   000070   7A01         MOV     R2,#0x1
   \   000072   7B00         MOV     R3,#0x0
   \   000074   90....       MOV     DPTR,#GenericApp_TaskID
   \   000077   E0           MOVX    A,@DPTR
   \   000078   F9           MOV     R1,A
   \   000079   12....       LCALL   ??osal_start_timerEx?relay
    158                HalLedSet(HAL_LED_1,HAL_LED_MODE_ON);
   \   00007C                ; Setup parameters for call to function HalLedSet
   \   00007C   7A01         MOV     R2,#0x1
   \   00007E   7901         MOV     R1,#0x1
   \   000080   12....       LCALL   ??HalLedSet?relay
    159                group_index=group_index%group;
   \   000083   90....       MOV     DPTR,#group_index
   \   000086   E0           MOVX    A,@DPTR
   \   000087   C0E0         PUSH    A
   \   000089   90....       MOV     DPTR,#group
   \   00008C   E0           MOVX    A,@DPTR
   \   00008D   F5F0         MOV     B,A
   \   00008F   D0E0         POP     A
   \   000091   84           DIV     AB
   \   000092   E5F0         MOV     A,B
   \   000094   90....       MOV     DPTR,#group_index
   \   000097   F0           MOVX    @DPTR,A
    160                uint16 addr=START_ADDR+group_index*REGISTER_NUM;
   \   000098   75F00B       MOV     B,#0xb
   \   00009B   A4           MUL     AB
   \   00009C   F8           MOV     R0,A
    161                group_index++;
   \   00009D   E0           MOVX    A,@DPTR
   \   00009E   04           INC     A
   \   00009F   F0           MOVX    @DPTR,A
    162                send_modbus_data[2]=addr>>8&0xff;
   \   0000A0   E5F0         MOV     A,B
   \   0000A2   90....       MOV     DPTR,#send_modbus_data + 2
   \   0000A5   F0           MOVX    @DPTR,A
    163                send_modbus_data[3]=addr&0xff;
   \   0000A6   E8           MOV     A,R0
   \   0000A7   A3           INC     DPTR
   \   0000A8   F0           MOVX    @DPTR,A
    164                send_modbus_data[4]=REGISTER_NUM>>8&0xff;
   \   0000A9   A3           INC     DPTR
   \   0000AA   E4           CLR     A
   \   0000AB   F0           MOVX    @DPTR,A
    165                send_modbus_data[5]=REGISTER_NUM&0xff;   
   \   0000AC   A3           INC     DPTR
   \   0000AD   740B         MOV     A,#0xb
   \   0000AF   F0           MOVX    @DPTR,A
    166                uint16 crc=CRC16_Check(send_modbus_data,6);
   \   0000B0                ; Setup parameters for call to function CRC16_Check
   \   0000B0   7906         MOV     R1,#0x6
   \   0000B2   7A..         MOV     R2,#send_modbus_data & 0xff
   \   0000B4   7B..         MOV     R3,#(send_modbus_data >> 8) & 0xff
   \   0000B6   12....       LCALL   ??CRC16_Check?relay
    167                send_modbus_data[6]=crc>>8&0xff;
   \   0000B9   EB           MOV     A,R3
   \   0000BA   90....       MOV     DPTR,#send_modbus_data + 6
   \   0000BD   F0           MOVX    @DPTR,A
    168                send_modbus_data[7]=crc&0xff;  
   \   0000BE   EA           MOV     A,R2
   \   0000BF   A3           INC     DPTR
   \   0000C0   F0           MOVX    @DPTR,A
    169                HalUARTWrite(0, send_modbus_data, 8);
   \   0000C1                ; Setup parameters for call to function HalUARTWrite
   \   0000C1   7C08         MOV     R4,#0x8
   \   0000C3   7D00         MOV     R5,#0x0
   \   0000C5   7A..         MOV     R2,#send_modbus_data & 0xff
   \   0000C7   7B..         MOV     R3,#(send_modbus_data >> 8) & 0xff
   \   0000C9   7900         MOV     R1,#0x0
   \   0000CB   12....       LCALL   ??HalUARTWrite?relay
    170                // return unprocessed events
    171                return (events ^ GENERICAPP_SEND_MSG_EVT);
   \   0000CE   EE           MOV     A,R6
   \   0000CF   6401         XRL     A,#0x1
   \   0000D1   FA           MOV     R2,A
   \   0000D2   EF           MOV     A,R7
   \   0000D3   808F         SJMP    ??GenericApp_ProcessEvent_5
    172              }
    173              return 0;
   \                     ??GenericApp_ProcessEvent_7:
   \   0000D5   7A00         MOV     R2,#0x0
   \   0000D7   7B00         MOV     R3,#0x0
   \                     ??GenericApp_ProcessEvent_6:
   \   0000D9                REQUIRE ?Subroutine1
   \   0000D9                ; // Fall through to label ?Subroutine1
    174          }

   \                                 In  segment BANKED_CODE, align 1, keep-with-next
   \                     ?Subroutine1:
   \   000000   7F04         MOV     R7,#0x4
   \   000002   02....       LJMP    ?BANKED_LEAVE_XDATA
    175          
    176          

   \                                 In  segment BANKED_CODE, align 1, keep-with-next
    177          void GenericApp_SendTheMessage(byte *RxBuf,uint8 len)
   \                     GenericApp_SendTheMessage:
    178          {    
   \   000000   74F4         MOV     A,#-0xc
   \   000002   12....       LCALL   ?BANKED_ENTER_XDATA
   \   000005                ; Saved register size: 12
   \   000005                ; Auto size: 12
   \   000005   74F4         MOV     A,#-0xc
   \   000007   12....       LCALL   ?ALLOC_XSTACK8
   \   00000A   8A..         MOV     ?V0 + 0,R2
   \   00000C   8B..         MOV     ?V0 + 1,R3
   \   00000E   E9           MOV     A,R1
   \   00000F   FE           MOV     R6,A
    179              HalLedBlink(HAL_LED_2, 1, 50, 500);
   \   000010                ; Setup parameters for call to function HalLedBlink
   \   000010   7CF4         MOV     R4,#-0xc
   \   000012   7D01         MOV     R5,#0x1
   \   000014   7B32         MOV     R3,#0x32
   \   000016   7A01         MOV     R2,#0x1
   \   000018   7902         MOV     R1,#0x2
   \   00001A   12....       LCALL   ??HalLedBlink?relay
    180              afAddrType_t devDstAddr;
    181              devDstAddr.addrMode=(afAddrMode_t)Addr16Bit;
   \   00001D   7408         MOV     A,#0x8
   \   00001F   12....       LCALL   ?XSTACK_DISP0_8
   \   000022   7402         MOV     A,#0x2
   \   000024   F0           MOVX    @DPTR,A
    182              devDstAddr.endPoint=GENERICAPP_ENDPOINT;
   \   000025   7409         MOV     A,#0x9
   \   000027   12....       LCALL   ?XSTACK_DISP0_8
   \   00002A   740A         MOV     A,#0xa
   \   00002C   12....       LCALL   ?Subroutine2 & 0xFFFF
    183              devDstAddr.addr.shortAddr=0x0000; 
   \                     ??CrossCallReturnLabel_2:
   \   00002F   E4           CLR     A
   \   000030   F0           MOVX    @DPTR,A
   \   000031   A3           INC     DPTR
   \   000032   F0           MOVX    @DPTR,A
    184              
    185              AF_DataRequest(&devDstAddr,
    186                  &GenericApp_epDesc,
    187                  GENERICAPP_CLUSTERID,
    188                  len,//send len
    189                  RxBuf,//send buf
    190                  &GenericApp_TransID,
    191                  AF_DISCV_ROUTE,
    192                  AF_DEFAULT_RADIUS);
   \   000033                ; Setup parameters for call to function AF_DataRequest
   \   000033   75..1E       MOV     ?V0 + 2,#0x1e
   \   000036   78..         MOV     R0,#?V0 + 2
   \   000038   12....       LCALL   ?PUSH_XSTACK_I_ONE
   \   00003B   75....       MOV     ?V0 + 2,#GenericApp_TransID & 0xff
   \   00003E   75....       MOV     ?V0 + 3,#(GenericApp_TransID >> 8) & 0xff
   \   000041   78..         MOV     R0,#?V0 + 2
   \   000043   12....       LCALL   ?PUSH_XSTACK_I_TWO
   \   000046   78..         MOV     R0,#?V0 + 0
   \   000048   12....       LCALL   ?PUSH_XSTACK_I_TWO
   \   00004B   8E..         MOV     ?V0 + 0,R6
   \   00004D   75..00       MOV     ?V0 + 1,#0x0
   \   000050   78..         MOV     R0,#?V0 + 0
   \   000052   12....       LCALL   ?PUSH_XSTACK_I_TWO
   \   000055   75..01       MOV     ?V0 + 0,#0x1
   \   000058   78..         MOV     R0,#?V0 + 0
   \   00005A   12....       LCALL   ?PUSH_XSTACK_I_TWO
   \   00005D   7920         MOV     R1,#0x20
   \   00005F   7C..         MOV     R4,#GenericApp_epDesc & 0xff
   \   000061   7D..         MOV     R5,#(GenericApp_epDesc >> 8) & 0xff
   \   000063   7409         MOV     A,#0x9
   \   000065   12....       LCALL   ?XSTACK_DISP0_8
   \   000068   AA82         MOV     R2,DPL
   \   00006A   AB83         MOV     R3,DPH
   \   00006C   12....       LCALL   ??AF_DataRequest?relay
   \   00006F   7409         MOV     A,#0x9
   \   000071   12....       LCALL   ?DEALLOC_XSTACK8
    193          }
   \   000074   740C         MOV     A,#0xc
   \   000076   12....       LCALL   ?DEALLOC_XSTACK8
   \   000079   80..         SJMP    ?Subroutine1
    194          

   \                                 In  segment BANKED_CODE, align 1, keep-with-next
    195          static void rxCB(uint8 port,uint8 event)
   \                     rxCB:
    196          {
   \   000000   74F5         MOV     A,#-0xb
   \   000002   12....       LCALL   ?BANKED_ENTER_XDATA
   \   000005                ; Saved register size: 11
   \   000005                ; Auto size: 0
   \   000005   EA           MOV     A,R2
   \   000006   FE           MOV     R6,A
    197            if ((event & (HAL_UART_RX_FULL | HAL_UART_RX_ABOUT_FULL | HAL_UART_RX_TIMEOUT)) &&
    198          #if SERIAL_APP_LOOPBACK
    199                (SerialApp_TxLen < SERIAL_APP_TX_MAX))
    200          #else
    201                !SerialApp_TxLen)
   \   000007   7407         MOV     A,#0x7
   \   000009   5E           ANL     A,R6
   \   00000A   7003         JNZ     $+5
   \   00000C   02....       LJMP    ??rxCB_0 & 0xFFFF
   \   00000F   90....       MOV     DPTR,#SerialApp_TxLen
   \   000012   E0           MOVX    A,@DPTR
   \   000013   6003         JZ      $+5
   \   000015   02....       LJMP    ??rxCB_0 & 0xFFFF
    202          #endif
    203            {
    204              SerialApp_TxLen = HalUARTRead(0, RxBuf, SERIAL_APP_TX_MAX);
   \   000018                ; Setup parameters for call to function HalUARTRead
   \   000018   7C40         MOV     R4,#0x40
   \   00001A   7D00         MOV     R5,#0x0
   \   00001C   7A..         MOV     R2,#RxBuf & 0xff
   \   00001E   7B..         MOV     R3,#(RxBuf >> 8) & 0xff
   \   000020   7900         MOV     R1,#0x0
   \   000022   12....       LCALL   ??HalUARTRead?relay
   \   000025   EA           MOV     A,R2
   \   000026   90....       MOV     DPTR,#SerialApp_TxLen
   \   000029   F0           MOVX    @DPTR,A
    205              if (SerialApp_TxLen&&SerialApp_TxLen>RxBuf[2])
   \   00002A   7003         JNZ     $+5
   \   00002C   02....       LJMP    ??rxCB_0 & 0xFFFF
   \   00002F   F8           MOV     R0,A
   \   000030   90....       MOV     DPTR,#RxBuf + 2
   \   000033   E0           MOVX    A,@DPTR
   \   000034   C3           CLR     C
   \   000035   98           SUBB    A,R0
   \   000036   4003         JC      $+5
   \   000038   02....       LJMP    ??rxCB_0 & 0xFFFF
    206              {
    207                if(RxBuf[0]==Modbus_Addr&&RxBuf[1]==0x03)
   \   00003B   90....       MOV     DPTR,#RxBuf
   \   00003E   E0           MOVX    A,@DPTR
   \   00003F   6401         XRL     A,#0x1
   \   000041   6003         JZ      $+5
   \   000043   02....       LJMP    ??rxCB_1 & 0xFFFF
   \   000046   A3           INC     DPTR
   \   000047   E0           MOVX    A,@DPTR
   \   000048   6403         XRL     A,#0x3
   \   00004A   6003         JZ      $+5
   \   00004C   02....       LJMP    ??rxCB_1 & 0xFFFF
    208                {
    209                  uint8 len=RxBuf[2];
   \   00004F   A3           INC     DPTR
   \   000050   E0           MOVX    A,@DPTR
   \   000051   FF           MOV     R7,A
    210                  uint16 crc=CRC16_Check(RxBuf,len+3);
   \   000052                ; Setup parameters for call to function CRC16_Check
   \   000052   7403         MOV     A,#0x3
   \   000054   2F           ADD     A,R7
   \   000055   F9           MOV     R1,A
   \   000056   7A..         MOV     R2,#RxBuf & 0xff
   \   000058   7B..         MOV     R3,#(RxBuf >> 8) & 0xff
   \   00005A   12....       LCALL   ??CRC16_Check?relay
   \   00005D   8B..         MOV     ?V0 + 1,R3
    211                  uint8 crc_high=crc>>8&0xff;
    212                  uint8 crc_low=crc&0xff;
    213                  if(crc_high==RxBuf[len+3]&&crc_low==RxBuf[len+4])//确保从modbus_485接收到的数据没有错.
   \   00005F   A8..         MOV     R0,?V0 + 1
   \   000061   8F..         MOV     ?V0 + 0,R7
   \   000063   74..         MOV     A,#(RxBuf + 3) & 0xff
   \   000065   25..         ADD     A,?V0 + 0
   \   000067   F582         MOV     DPL,A
   \   000069   74..         MOV     A,#((RxBuf + 3) >> 8) & 0xff
   \   00006B   3400         ADDC    A,#0x0
   \   00006D   F583         MOV     DPH,A
   \   00006F   E0           MOVX    A,@DPTR
   \   000070   68           XRL     A,R0
   \   000071   706C         JNZ     ??rxCB_1
   \   000073   74..         MOV     A,#(RxBuf + 4) & 0xff
   \   000075   25..         ADD     A,?V0 + 0
   \   000077   F582         MOV     DPL,A
   \   000079   74..         MOV     A,#((RxBuf + 4) >> 8) & 0xff
   \   00007B   3400         ADDC    A,#0x0
   \   00007D   F583         MOV     DPH,A
   \   00007F   E0           MOVX    A,@DPTR
   \   000080   6A           XRL     A,R2
   \   000081   705C         JNZ     ??rxCB_1
    214                  {
    215                    RadioApp_TxLen=RadioHead_TxLen;
   \   000083   90....       MOV     DPTR,#RadioHead_TxLen
   \   000086   E0           MOVX    A,@DPTR
   \   000087   90....       MOV     DPTR,#RadioApp_TxLen
   \   00008A   F0           MOVX    @DPTR,A
    216                    RadioBuf[RadioApp_TxLen++]=group_index;
   \   00008B   90....       MOV     DPTR,#group_index
   \   00008E   E0           MOVX    A,@DPTR
   \   00008F   C0E0         PUSH    A
   \   000091   90....       MOV     DPTR,#RadioApp_TxLen
   \   000094   E0           MOVX    A,@DPTR
   \   000095   12....       LCALL   ?Subroutine3 & 0xFFFF
   \                     ??CrossCallReturnLabel_4:
   \   000098   D0E0         POP     A
   \   00009A   F0           MOVX    @DPTR,A
   \   00009B   90....       MOV     DPTR,#RadioApp_TxLen
   \   00009E   E0           MOVX    A,@DPTR
   \   00009F   04           INC     A
   \   0000A0   F0           MOVX    @DPTR,A
    217                    osal_memcpy(RadioBuf+RadioApp_TxLen,RxBuf,len+3);
   \   0000A1                ; Setup parameters for call to function osal_memcpy
   \   0000A1   75....       MOV     ?V0 + 0,#RxBuf & 0xff
   \   0000A4   75....       MOV     ?V0 + 1,#(RxBuf >> 8) & 0xff
   \   0000A7   75..00       MOV     ?V0 + 2,#0x0
   \   0000AA   78..         MOV     R0,#?V0 + 0
   \   0000AC   12....       LCALL   ?PUSH_XSTACK_I_THREE
   \   0000AF   EF           MOV     A,R7
   \   0000B0   2403         ADD     A,#0x3
   \   0000B2   FC           MOV     R4,A
   \   0000B3   E4           CLR     A
   \   0000B4   3400         ADDC    A,#0x0
   \   0000B6   FD           MOV     R5,A
   \   0000B7   90....       MOV     DPTR,#RadioApp_TxLen
   \   0000BA   E0           MOVX    A,@DPTR
   \   0000BB   F8           MOV     R0,A
   \   0000BC   74..         MOV     A,#RadioBuf & 0xff
   \   0000BE   28           ADD     A,R0
   \   0000BF   FA           MOV     R2,A
   \   0000C0   74..         MOV     A,#(RadioBuf >> 8) & 0xff
   \   0000C2   3400         ADDC    A,#0x0
   \   0000C4   FB           MOV     R3,A
   \   0000C5   12....       LCALL   ??osal_memcpy?relay
   \   0000C8   7403         MOV     A,#0x3
   \   0000CA   12....       LCALL   ?DEALLOC_XSTACK8
    218                    RadioApp_TxLen+=len+3;
   \   0000CD   7403         MOV     A,#0x3
   \   0000CF   2F           ADD     A,R7
   \   0000D0   F8           MOV     R0,A
   \   0000D1   90....       MOV     DPTR,#RadioApp_TxLen
   \   0000D4   E0           MOVX    A,@DPTR
   \   0000D5   28           ADD     A,R0
   \   0000D6   F0           MOVX    @DPTR,A
    219                    GenericApp_SendTheMessage(RadioBuf,RadioApp_TxLen);//发送数据到协调器
   \   0000D7                ; Setup parameters for call to function GenericApp_SendTheMessage
   \   0000D7   F9           MOV     R1,A
   \   0000D8   7A..         MOV     R2,#RadioBuf & 0xff
   \   0000DA   7B..         MOV     R3,#(RadioBuf >> 8) & 0xff
   \   0000DC   12....       LCALL   ??GenericApp_SendTheMessage?relay
    220                  }
    221                }
    222                HalLedSet(HAL_LED_1,HAL_LED_MODE_OFF);
   \                     ??rxCB_1:
   \   0000DF                ; Setup parameters for call to function HalLedSet
   \   0000DF   7A00         MOV     R2,#0x0
   \   0000E1   7901         MOV     R1,#0x1
   \   0000E3   12....       LCALL   ??HalLedSet?relay
    223                SerialApp_TxLen=0;
   \   0000E6   90....       MOV     DPTR,#SerialApp_TxLen
   \   0000E9   E4           CLR     A
   \   0000EA   F0           MOVX    @DPTR,A
    224              }
    225            }
    226          }
   \                     ??rxCB_0:
   \   0000EB   02....       LJMP    ?Subroutine0 & 0xFFFF
    227          

   \                                 In  segment BANKED_CODE, align 1, keep-with-next
    228          uint16 CRC16_Check(uint8 *Pushdata,uint8 length)  
   \                     CRC16_Check:
    229          {  
   \   000000   74F6         MOV     A,#-0xa
   \   000002   12....       LCALL   ?BANKED_ENTER_XDATA
   \   000005                ; Saved register size: 10
   \   000005                ; Auto size: 0
    230            uint16 Reg_CRC=0xffff;  
   \   000005   7CFF         MOV     R4,#-0x1
   \   000007   7DFF         MOV     R5,#-0x1
    231            uint8 Temp_reg=0x00;  
    232            uint8 i,j;   
    233            for( i = 0; i<length; i ++)
   \   000009   7E00         MOV     R6,#0x0
   \   00000B   800B         SJMP    ??CRC16_Check_0
    234            {  
    235          	Reg_CRC^= *Pushdata++;  
    236          	for (j = 0; j<8; j++)  
    237          	{       
    238          	if (Reg_CRC & 0x0001)  
    239          		Reg_CRC=Reg_CRC>>1^0xA001;  
    240          	else  
    241          		Reg_CRC >>=1;  
   \                     ??CRC16_Check_1:
   \   00000D   C3           CLR     C
   \   00000E   13           RRC     A
   \   00000F   FD           MOV     R5,A
   \   000010   EC           MOV     A,R4
   \   000011   13           RRC     A
   \   000012   FC           MOV     R4,A
   \                     ??CRC16_Check_2:
   \   000013   18           DEC     R0
   \   000014   E8           MOV     A,R0
   \   000015   7014         JNZ     ??CRC16_Check_3
   \   000017   0E           INC     R6
   \                     ??CRC16_Check_0:
   \   000018   EE           MOV     A,R6
   \   000019   C3           CLR     C
   \   00001A   99           SUBB    A,R1
   \   00001B   5022         JNC     ??CRC16_Check_4
   \   00001D   8A82         MOV     DPL,R2
   \   00001F   8B83         MOV     DPH,R3
   \   000021   E0           MOVX    A,@DPTR
   \   000022   6C           XRL     A,R4
   \   000023   FC           MOV     R4,A
   \   000024   A3           INC     DPTR
   \   000025   AA82         MOV     R2,DPL
   \   000027   AB83         MOV     R3,DPH
   \   000029   7808         MOV     R0,#0x8
   \                     ??CRC16_Check_3:
   \   00002B   EC           MOV     A,R4
   \   00002C   A2E0         MOV     C,0xE0 /* A   */.0
   \   00002E   ED           MOV     A,R5
   \   00002F   50DC         JNC     ??CRC16_Check_1
   \   000031   C3           CLR     C
   \   000032   13           RRC     A
   \   000033   FD           MOV     R5,A
   \   000034   EC           MOV     A,R4
   \   000035   13           RRC     A
   \   000036   6401         XRL     A,#0x1
   \   000038   FC           MOV     R4,A
   \   000039   ED           MOV     A,R5
   \   00003A   64A0         XRL     A,#0xa0
   \   00003C   FD           MOV     R5,A
   \   00003D   80D4         SJMP    ??CRC16_Check_2
    242             }
    243            }
    244            Temp_reg=Reg_CRC>>8;
    245            return (Reg_CRC<<8|Temp_reg);  
   \                     ??CRC16_Check_4:
   \   00003F   EC           MOV     A,R4
   \   000040   FB           MOV     R3,A
   \   000041   ED           MOV     A,R5
   \   000042   FA           MOV     R2,A
   \   000043   7F02         MOV     R7,#0x2
   \   000045   02....       LJMP    ?BANKED_LEAVE_XDATA
    246          }

   \                                 In  segment XDATA_ID, align 1, keep-with-next
   \                     `?<Initializer for send_modbus_data>`:
   \   000000   01           DB 1
   \   000001   03           DB 3
   \   000002   00           DB 0
   \   000003   00           DB 0
   \   000004   00           DB 0
   \   000005   00           DB 0
   \   000006   00           DB 0
   \   000007   00           DB 0

   \                                 In  segment XDATA_ID, align 1, keep-with-next
   \                     `?<Initializer for group>`:
   \   000000   02           DB 2

   \                                 In  segment BANK_RELAYS, align 1
   \                     ??GenericApp_Init?relay:
   \   000000   12....       LCALL   ?BDISPATCH
   \   000003   ......       DC24    GenericApp_Init

   \                                 In  segment BANK_RELAYS, align 1
   \                     ??GenericApp_ProcessEvent?relay:
   \   000000   12....       LCALL   ?BDISPATCH
   \   000003   ......       DC24    GenericApp_ProcessEvent

   \                                 In  segment BANK_RELAYS, align 1
   \                     ??GenericApp_SendTheMessage?relay:
   \   000000   12....       LCALL   ?BDISPATCH
   \   000003   ......       DC24    GenericApp_SendTheMessage

   \                                 In  segment BANK_RELAYS, align 1
   \                     ??rxCB?relay:
   \   000000   12....       LCALL   ?BDISPATCH
   \   000003   ......       DC24    rxCB

   \                                 In  segment BANK_RELAYS, align 1
   \                     ??CRC16_Check?relay:
   \   000000   12....       LCALL   ?BDISPATCH
   \   000003   ......       DC24    CRC16_Check
    247          
    248          /*
    249          void GenericApp_MessageMSGCB(afIncomingMSGPacket_t *pkt)
    250          {  
    251              switch ( pkt->clusterId )
    252              {
    253              case GENERICAPP_CLUSTERID:
    254                
    255                  osal_memset(buf, 0 , 3);
    256                  osal_memcpy(buf, pkt->cmd.Data, 2);
    257                  if(buf[0]=='D' && buf[1]=='1')       
    258                  {
    259                      HalLedBlink(HAL_LED_1, 0, 50, 500);                                   
    260                  }
    261                  else
    262                  {
    263                      HalLedSet(HAL_LED_1,HAL_LED_MODE_ON);                   
    264                  }
    265                
    266                  break;
    267              }
    268          }
    269          */

   Maximum stack usage in bytes:

     Function                       ISTACK PSTACK XSTACK
     --------                       ------ ------ ------
     CRC16_Check                        0      0     22
     GenericApp_Init                    0      0     43
       -> NLME_GetExtAddr               0      0     80
       -> osal_memcpy                   0      0     86
       -> HalUARTOpen                   0      0     80
       -> afRegister                    0      0     80
     GenericApp_ProcessEvent            1      0     12
       -> osal_msg_receive              0      0     24
       -> HalLedBlink                   0      0     24
       -> osal_start_timerEx            0      0     24
       -> osal_msg_deallocate           0      0     24
       -> osal_msg_receive              0      0     24
       -> osal_start_timerEx            0      0     24
       -> HalLedSet                     0      0     24
       -> CRC16_Check                   0      0     24
       -> HalUARTWrite                  0      0     24
     GenericApp_SendTheMessage          0      0     44
       -> HalLedBlink                   0      0     48
       -> AF_DataRequest                0      0     66
     rxCB                               1      0     14
       -> HalUARTRead                   0      0     22
       -> CRC16_Check                   0      0     22
       -> osal_memcpy                   0      0     28
       -> GenericApp_SendTheMessage     0      0     22
       -> HalLedSet                     0      0     22


   Segment part sizes:

     Function/Label                      Bytes
     --------------                      -----
     _A_P0                                  1
     P0DIR                                  1
     send_modbus_data                       8
     RxBuf                                 65
     RadioBuf                              65
     RadioHead_TxLen                        1
     RadioApp_TxLen                         1
     SerialApp_TxLen                        1
     eui64                                  2
     group                                  1
     group_index                            1
     GenericApp_ClusterList                 2
     GenericApp_SimpleDesc                 12
     GenericApp_epDesc                      6
     GenericApp_TaskID                      1
     GenericApp_TransID                     1
     GenericApp_NwkState                    1
     GenericApp_Init                      228
     ?Subroutine0                           5
     ?Subroutine2                           8
     ?Subroutine3                          13
     GenericApp_ProcessEvent              217
     ?Subroutine1                           5
     GenericApp_SendTheMessage            123
     rxCB                                 238
     CRC16_Check                           72
     ?<Initializer for send_modbus_data>    8
     ?<Initializer for group>               1
     ??GenericApp_Init?relay                6
     ??GenericApp_ProcessEvent?relay        6
     ??GenericApp_SendTheMessage?relay      6
     ??rxCB?relay                           6
     ??CRC16_Check?relay                    6

 
 909 bytes in segment BANKED_CODE
  30 bytes in segment BANK_RELAYS
   2 bytes in segment SFR_AN
   9 bytes in segment XDATA_I
   9 bytes in segment XDATA_ID
  14 bytes in segment XDATA_ROM_C
 145 bytes in segment XDATA_Z
 
 948 bytes of CODE  memory
  14 bytes of CONST memory
   0 bytes of DATA  memory (+ 2 bytes shared)
 154 bytes of XDATA memory

Errors: none
Warnings: none
