///////////////////////////////////////////////////////////////////////////////
//                                                                            /
// IAR C/C++ Compiler V8.10.3.10338/W32 for 8051        05/May/2016  17:43:59 /
// Copyright 2004-2011 IAR Systems AB.                                        /
//                                                                            /
//    Core               =  plain                                             /
//    Code model         =  banked                                            /
//    Data model         =  large                                             /
//    Calling convention =  xdata reentrant                                   /
//    Constant location  =  data_rom                                          /
//    Dptr setup         =  1,16                                              /
//    Source file        =  F:\ZStack-2.5.1a\Projects\zstack\Samples\Photovol /
//                          taic\Source\Router&&Enddevice.c                   /
//    Command line       =  -f F:\ZStack-2.5.1a\Projects\zstack\Samples\Photo /
//                          voltaic\CC2530DB\..\..\..\Tools\CC2530DB\f8wEndev /
//                          .cfg (-DCPU32MHZ -DROOT=__near_func               /
//                          -DMAC_CFG_TX_DATA_MAX=3 -DMAC_CFG_TX_MAX=6        /
//                          -DMAC_CFG_RX_MAX=3) -f F:\ZStack-2.5.1a\Projects\ /
//                          zstack\Samples\Photovoltaic\CC2530DB\..\..\..\Too /
//                          ls\CC2530DB\f8wConfig.cfg (-DZIGBEEPRO            /
//                          -DSECURE=0 -DZG_SECURE_DYNAMIC=0 -DREFLECTOR      /
//                          -DDEFAULT_CHANLIST=0x02000000                     /
//                          -DZDAPP_CONFIG_PAN_ID=0xFFF1                      /
//                          -DNWK_START_DELAY=100 -DEXTENDED_JOINING_RANDOM_M /
//                          ASK=0x007F -DBEACON_REQUEST_DELAY=100             /
//                          -DBEACON_REQ_DELAY_MASK=0x00FF                    /
//                          -DLINK_STATUS_JITTER_MASK=0x007F                  /
//                          -DROUTE_EXPIRY_TIME=30 -DAPSC_ACK_WAIT_DURATION_P /
//                          OLLED=3000 -DNWK_INDIRECT_MSG_TIMEOUT=7           /
//                          -DMAX_RREQ_ENTRIES=8 -DAPSC_MAX_FRAME_RETRIES=3   /
//                          -DNWK_MAX_DATA_RETRIES=2                          /
//                          -DMAX_POLL_FAILURE_RETRIES=2 -DMAX_BCAST=9        /
//                          -DAPS_MAX_GROUPS=16 -DMAX_RTG_ENTRIES=40          /
//                          -DNWK_MAX_BINDING_ENTRIES=4                       /
//                          -DMAX_BINDING_CLUSTER_IDS=4                       /
//                          "-DDEFAULT_KEY={0x01, 0x03, 0x05, 0x07, 0x09,     /
//                          0x0B, 0x0D, 0x0F, 0x00, 0x02, 0x04, 0x06, 0x08,   /
//                          0x0A, 0x0C, 0x0D}" -DMAC_MAX_FRAME_SIZE=116       /
//                          -DZDNWKMGR_MIN_TRANSMISSIONS=20 "-DCONST=const    /
//                          __code" -DGENERIC=__generic                       /
//                          -DRFD_RCVC_ALWAYS_ON=FALSE -DPOLL_RATE=1000       /
//                          -DQUEUED_POLL_RATE=100 -DRESPONSE_POLL_RATE=100)  /
//                          -DREJOIN_POLL_RATE=440 F:\ZStack-2.5.1a\Projects\ /
//                          zstack\Samples\Photovoltaic\Source\Router&&Enddev /
//                          ice.c -D NWK_AUTO_POLL -D ZTOOL_P1 -D             /
//                          LOW_THROUGHPUT -D PV_METEOROLOGY_STA -lC          /
//                          F:\ZStack-2.5.1a\Projects\zstack\Samples\Photovol /
//                          taic\CC2530DB\EndDeviceEB\List\ -lA               /
//                          F:\ZStack-2.5.1a\Projects\zstack\Samples\Photovol /
//                          taic\CC2530DB\EndDeviceEB\List\ --diag_suppress   /
//                          Pe001,Pa010 -o F:\ZStack-2.5.1a\Projects\zstack\S /
//                          amples\Photovoltaic\CC2530DB\EndDeviceEB\Obj\ -e  /
//                          --no_code_motion --debug --core=plain             /
//                          --dptr=16,1 --data_model=large                    /
//                          --code_model=banked --calling_convention=xdata_re /
//                          entrant --place_constants=data_rom                /
//                          --nr_virtual_regs 16 -I                           /
//                          F:\ZStack-2.5.1a\Projects\zstack\Samples\Photovol /
//                          taic\CC2530DB\ -I F:\ZStack-2.5.1a\Projects\zstac /
//                          k\Samples\Photovoltaic\CC2530DB\..\Source\ -I     /
//                          F:\ZStack-2.5.1a\Projects\zstack\Samples\Photovol /
//                          taic\CC2530DB\..\..\..\ZMain\TI2530DB\ -I         /
//                          F:\ZStack-2.5.1a\Projects\zstack\Samples\Photovol /
//                          taic\CC2530DB\..\..\..\..\..\Components\hal\inclu /
//                          de\ -I F:\ZStack-2.5.1a\Projects\zstack\Samples\P /
//                          hotovoltaic\CC2530DB\..\..\..\..\..\Components\ha /
//                          l\target\CC2530EB\ -I F:\ZStack-2.5.1a\Projects\z /
//                          stack\Samples\Photovoltaic\CC2530DB\..\..\..\..\. /
//                          .\Components\mac\include\ -I                      /
//                          F:\ZStack-2.5.1a\Projects\zstack\Samples\Photovol /
//                          taic\CC2530DB\..\..\..\..\..\Components\mac\high_ /
//                          level\ -I F:\ZStack-2.5.1a\Projects\zstack\Sample /
//                          s\Photovoltaic\CC2530DB\..\..\..\..\..\Components /
//                          \mac\low_level\srf04\ -I                          /
//                          F:\ZStack-2.5.1a\Projects\zstack\Samples\Photovol /
//                          taic\CC2530DB\..\..\..\..\..\Components\mac\low_l /
//                          evel\srf04\single_chip\ -I                        /
//                          F:\ZStack-2.5.1a\Projects\zstack\Samples\Photovol /
//                          taic\CC2530DB\..\..\..\..\..\Components\mt\ -I    /
//                          F:\ZStack-2.5.1a\Projects\zstack\Samples\Photovol /
//                          taic\CC2530DB\..\..\..\..\..\Components\osal\incl /
//                          ude\ -I F:\ZStack-2.5.1a\Projects\zstack\Samples\ /
//                          Photovoltaic\CC2530DB\..\..\..\..\..\Components\s /
//                          ervices\saddr\ -I F:\ZStack-2.5.1a\Projects\zstac /
//                          k\Samples\Photovoltaic\CC2530DB\..\..\..\..\..\Co /
//                          mponents\services\sdata\ -I                       /
//                          F:\ZStack-2.5.1a\Projects\zstack\Samples\Photovol /
//                          taic\CC2530DB\..\..\..\..\..\Components\stack\af\ /
//                           -I F:\ZStack-2.5.1a\Projects\zstack\Samples\Phot /
//                          ovoltaic\CC2530DB\..\..\..\..\..\Components\stack /
//                          \nwk\ -I F:\ZStack-2.5.1a\Projects\zstack\Samples /
//                          \Photovoltaic\CC2530DB\..\..\..\..\..\Components\ /
//                          stack\sapi\ -I F:\ZStack-2.5.1a\Projects\zstack\S /
//                          amples\Photovoltaic\CC2530DB\..\..\..\..\..\Compo /
//                          nents\stack\sec\ -I F:\ZStack-2.5.1a\Projects\zst /
//                          ack\Samples\Photovoltaic\CC2530DB\..\..\..\..\..\ /
//                          Components\stack\sys\ -I                          /
//                          F:\ZStack-2.5.1a\Projects\zstack\Samples\Photovol /
//                          taic\CC2530DB\..\..\..\..\..\Components\stack\zdo /
//                          \ -I F:\ZStack-2.5.1a\Projects\zstack\Samples\Pho /
//                          tovoltaic\CC2530DB\..\..\..\..\..\Components\zmac /
//                          \ -I F:\ZStack-2.5.1a\Projects\zstack\Samples\Pho /
//                          tovoltaic\CC2530DB\..\..\..\..\..\Components\zmac /
//                          \f8w\ -Ohz --require_prototypes                   /
//    List file          =  F:\ZStack-2.5.1a\Projects\zstack\Samples\Photovol /
//                          taic\CC2530DB\EndDeviceEB\List\Router&&Enddevice. /
//                          s51                                               /
//                                                                            /
//                                                                            /
///////////////////////////////////////////////////////////////////////////////

        NAME `Router&&Enddevice`

        RTMODEL "__SystemLibrary", "CLib"
        RTMODEL "__calling_convention", "xdata_reentrant"
        RTMODEL "__code_model", "banked"
        RTMODEL "__core", "plain"
        RTMODEL "__data_model", "large"
        RTMODEL "__dptr_size", "16"
        RTMODEL "__extended_stack", "disabled"
        RTMODEL "__location_for_constants", "data"
        RTMODEL "__number_of_dptrs", "1"
        RTMODEL "__rt_version", "1"

        RSEG DOVERLAY:DATA:NOROOT(0)
        RSEG IOVERLAY:IDATA:NOROOT(0)
        RSEG ISTACK:IDATA:NOROOT(0)
        RSEG PSTACK:XDATA:NOROOT(0)
        RSEG XSTACK:XDATA:NOROOT(0)

        EXTERN ?ALLOC_XSTACK8
        EXTERN ?BANKED_ENTER_XDATA
        EXTERN ?BANKED_LEAVE_XDATA
        EXTERN ?BDISPATCH
        EXTERN ?DEALLOC_XSTACK8
        EXTERN ?PUSH_XSTACK_I_ONE
        EXTERN ?PUSH_XSTACK_I_THREE
        EXTERN ?PUSH_XSTACK_I_TWO
        EXTERN ?S_DIV_MOD
        EXTERN ?S_SHL
        EXTERN ?V0
        EXTERN ?XSP
        EXTERN ?XSTACK_DISP0_8
        EXTERN __INIT_XDATA_I
        EXTERN __INIT_XDATA_Z

        PUBLIC ??CRC16_Check?relay
        FUNCTION ??CRC16_Check?relay,0203H
        PUBLIC ??GenericApp_Init?relay
        FUNCTION ??GenericApp_Init?relay,0203H
        PUBLIC ??GenericApp_ProcessEvent?relay
        FUNCTION ??GenericApp_ProcessEvent?relay,0203H
        PUBLIC ??GenericApp_SendTheMessage?relay
        FUNCTION ??GenericApp_SendTheMessage?relay,0203H
        FUNCTION ??rxCB?relay,0203H
        PUBLIC CRC16_Check
        FUNCTION CRC16_Check,0203H
        ARGFRAME XSTACK, 12, STACK
        ARGFRAME IOVERLAY, 0, STATIC
        ARGFRAME DOVERLAY, 0, STATIC
        LOCFRAME XSTACK, 10, STACK
        PUBLIC GenericApp_ClusterList
        PUBLIC GenericApp_Init
        FUNCTION GenericApp_Init,021203H
        ARGFRAME XSTACK, 0, STACK
        LOCFRAME XSTACK, 43, STACK
        PUBLIC GenericApp_NwkState
        PUBLIC GenericApp_ProcessEvent
        FUNCTION GenericApp_ProcessEvent,021203H
        ARGFRAME XSTACK, 0, STACK
        LOCFRAME ISTACK, 2, STACK
        LOCFRAME XSTACK, 12, STACK
        PUBLIC GenericApp_SendTheMessage
        FUNCTION GenericApp_SendTheMessage,021203H
        ARGFRAME XSTACK, 11, STACK
        ARGFRAME IOVERLAY, 0, STATIC
        ARGFRAME DOVERLAY, 0, STATIC
        LOCFRAME XSTACK, 31, STACK
        PUBLIC GenericApp_SimpleDesc
        PUBLIC GenericApp_TaskID
        PUBLIC GenericApp_TransID
        PUBLIC GenericApp_epDesc
        PUBWEAK P0DIR
        PUBLIC RadioBuf
        PUBLIC Uart_RxBuf
        PUBWEAK _A_P0
        PUBLIC d_message
        PUBLIC eui64
        PUBLIC radio_send_flag
        FUNCTION rxCB,021603H
        ARGFRAME XSTACK, 0, STACK
        LOCFRAME ISTACK, 1, STACK
        LOCFRAME XSTACK, 14, STACK
        PUBLIC send_modbus_data
        
        CFI Names cfiNames0
        CFI StackFrame CFA_SP SP IDATA
        CFI StackFrame CFA_PSP16 PSP16 XDATA
        CFI StackFrame CFA_XSP16 XSP16 XDATA
        CFI StaticOverlayFrame CFA_IOVERLAY IOVERLAY
        CFI StaticOverlayFrame CFA_DOVERLAY DOVERLAY
        CFI Resource `PSW.CY`:1, `B.BR0`:1, `B.BR1`:1, `B.BR2`:1, `B.BR3`:1
        CFI Resource `B.BR4`:1, `B.BR5`:1, `B.BR6`:1, `B.BR7`:1, `VB.BR8`:1
        CFI Resource `VB.BR9`:1, `VB.BR10`:1, `VB.BR11`:1, `VB.BR12`:1
        CFI Resource `VB.BR13`:1, `VB.BR14`:1, `VB.BR15`:1, VB:8, B:8, A:8
        CFI Resource PSW:8, DPL0:8, DPH0:8, R0:8, R1:8, R2:8, R3:8, R4:8, R5:8
        CFI Resource R6:8, R7:8, V0:8, V1:8, V2:8, V3:8, V4:8, V5:8, V6:8, V7:8
        CFI Resource V8:8, V9:8, V10:8, V11:8, V12:8, V13:8, V14:8, V15:8, SP:8
        CFI Resource PSPH:8, PSPL:8, PSP16:16, XSPH:8, XSPL:8, XSP16:16
        CFI VirtualResource ?RET:24
        CFI Resource ?BRET_EXT:8
        CFI VirtualResource ?RET_HIGH:8, ?RET_LOW:8
        CFI ResourceParts PSP16 PSPH, PSPL
        CFI ResourceParts XSP16 XSPH, XSPL
        CFI ResourceParts ?RET ?BRET_EXT, ?RET_HIGH, ?RET_LOW
        CFI EndNames cfiNames0
        
        CFI Common cfiCommon0 Using cfiNames0
        CFI CodeAlign 1
        CFI DataAlign -1
        CFI ReturnAddress ?RET CODE
        CFI CFA_DOVERLAY Used
        CFI CFA_IOVERLAY Used
        CFI CFA_SP SP+-3
        CFI CFA_PSP16 PSP16+0
        CFI CFA_XSP16 XSP16+0
        CFI `PSW.CY` SameValue
        CFI `B.BR0` SameValue
        CFI `B.BR1` SameValue
        CFI `B.BR2` SameValue
        CFI `B.BR3` SameValue
        CFI `B.BR4` SameValue
        CFI `B.BR5` SameValue
        CFI `B.BR6` SameValue
        CFI `B.BR7` SameValue
        CFI `VB.BR8` SameValue
        CFI `VB.BR9` SameValue
        CFI `VB.BR10` SameValue
        CFI `VB.BR11` SameValue
        CFI `VB.BR12` SameValue
        CFI `VB.BR13` SameValue
        CFI `VB.BR14` SameValue
        CFI `VB.BR15` SameValue
        CFI VB SameValue
        CFI B Undefined
        CFI A Undefined
        CFI PSW SameValue
        CFI DPL0 SameValue
        CFI DPH0 SameValue
        CFI R0 Undefined
        CFI R1 Undefined
        CFI R2 Undefined
        CFI R3 Undefined
        CFI R4 Undefined
        CFI R5 Undefined
        CFI R6 SameValue
        CFI R7 SameValue
        CFI V0 SameValue
        CFI V1 SameValue
        CFI V2 SameValue
        CFI V3 SameValue
        CFI V4 SameValue
        CFI V5 SameValue
        CFI V6 SameValue
        CFI V7 SameValue
        CFI V8 SameValue
        CFI V9 SameValue
        CFI V10 SameValue
        CFI V11 SameValue
        CFI V12 SameValue
        CFI V13 SameValue
        CFI V14 SameValue
        CFI V15 SameValue
        CFI PSPH Undefined
        CFI PSPL Undefined
        CFI XSPH Undefined
        CFI XSPL Undefined
        CFI ?RET Concat
        CFI ?BRET_EXT Frame(CFA_SP, 3)
        CFI ?RET_HIGH Frame(CFA_SP, 2)
        CFI ?RET_LOW Frame(CFA_SP, 1)
        CFI EndCommon cfiCommon0
        
        
        CFI Common cfiCommon1 Using cfiNames0
        CFI CodeAlign 1
        CFI DataAlign -1
        CFI ReturnAddress ?RET CODE
        CFI CFA_DOVERLAY Used
        CFI CFA_IOVERLAY Used
        CFI CFA_SP SP+-2
        CFI CFA_PSP16 PSP16+0
        CFI CFA_XSP16 XSP16+0
        CFI `PSW.CY` SameValue
        CFI `B.BR0` SameValue
        CFI `B.BR1` SameValue
        CFI `B.BR2` SameValue
        CFI `B.BR3` SameValue
        CFI `B.BR4` SameValue
        CFI `B.BR5` SameValue
        CFI `B.BR6` SameValue
        CFI `B.BR7` SameValue
        CFI `VB.BR8` SameValue
        CFI `VB.BR9` SameValue
        CFI `VB.BR10` SameValue
        CFI `VB.BR11` SameValue
        CFI `VB.BR12` SameValue
        CFI `VB.BR13` SameValue
        CFI `VB.BR14` SameValue
        CFI `VB.BR15` SameValue
        CFI VB SameValue
        CFI B SameValue
        CFI A SameValue
        CFI PSW SameValue
        CFI DPL0 SameValue
        CFI DPH0 SameValue
        CFI R0 SameValue
        CFI R1 SameValue
        CFI R2 SameValue
        CFI R3 SameValue
        CFI R4 SameValue
        CFI R5 SameValue
        CFI R6 SameValue
        CFI R7 SameValue
        CFI V0 SameValue
        CFI V1 SameValue
        CFI V2 SameValue
        CFI V3 SameValue
        CFI V4 SameValue
        CFI V5 SameValue
        CFI V6 SameValue
        CFI V7 SameValue
        CFI V8 SameValue
        CFI V9 SameValue
        CFI V10 SameValue
        CFI V11 SameValue
        CFI V12 SameValue
        CFI V13 SameValue
        CFI V14 SameValue
        CFI V15 SameValue
        CFI PSPH Undefined
        CFI PSPL Undefined
        CFI XSPH Undefined
        CFI XSPL Undefined
        CFI ?RET Concat
        CFI ?BRET_EXT SameValue
        CFI ?RET_HIGH Frame(CFA_SP, 2)
        CFI ?RET_LOW Frame(CFA_SP, 1)
        CFI EndCommon cfiCommon1
        
NLME_GetExtAddr     SYMBOL "NLME_GetExtAddr"
osal_memcpy         SYMBOL "osal_memcpy"
HalUARTOpen         SYMBOL "HalUARTOpen"
macRadioUpdateTxPower SYMBOL "macRadioUpdateTxPower"
afRegister          SYMBOL "afRegister"
osal_msg_receive    SYMBOL "osal_msg_receive"
HalLedBlink         SYMBOL "HalLedBlink"
osal_start_timerEx  SYMBOL "osal_start_timerEx"
osal_msg_deallocate SYMBOL "osal_msg_deallocate"
HalLedSet           SYMBOL "HalLedSet"
HalUARTWrite        SYMBOL "HalUARTWrite"
AF_DataRequest      SYMBOL "AF_DataRequest"
HalUARTRead         SYMBOL "HalUARTRead"
??AF_DataRequest?relay SYMBOL "?relay", AF_DataRequest
??HalLedBlink?relay SYMBOL "?relay", HalLedBlink
??HalLedSet?relay   SYMBOL "?relay", HalLedSet
??HalUARTOpen?relay SYMBOL "?relay", HalUARTOpen
??HalUARTRead?relay SYMBOL "?relay", HalUARTRead
??HalUARTWrite?relay SYMBOL "?relay", HalUARTWrite
??NLME_GetExtAddr?relay SYMBOL "?relay", NLME_GetExtAddr
??afRegister?relay  SYMBOL "?relay", afRegister
??macRadioUpdateTxPower?relay SYMBOL "?relay", macRadioUpdateTxPower
??osal_memcpy?relay SYMBOL "?relay", osal_memcpy
??osal_msg_deallocate?relay SYMBOL "?relay", osal_msg_deallocate
??osal_msg_receive?relay SYMBOL "?relay", osal_msg_receive
??osal_start_timerEx?relay SYMBOL "?relay", osal_start_timerEx
CRC16_Check         SYMBOL "CRC16_Check"
??CRC16_Check?relay SYMBOL "?relay", CRC16_Check
GenericApp_Init     SYMBOL "GenericApp_Init"
??GenericApp_Init?relay SYMBOL "?relay", GenericApp_Init
GenericApp_ProcessEvent SYMBOL "GenericApp_ProcessEvent"
??GenericApp_ProcessEvent?relay SYMBOL "?relay", GenericApp_ProcessEvent
GenericApp_SendTheMessage SYMBOL "GenericApp_SendTheMessage"
??GenericApp_SendTheMessage?relay SYMBOL "?relay", GenericApp_SendTheMessage

        EXTERN NLME_GetExtAddr
        FUNCTION NLME_GetExtAddr,0202H
        ARGFRAME ISTACK, 0, STACK
        ARGFRAME PSTACK, 0, STACK
        ARGFRAME XSTACK, 40, STACK
        ARGFRAME IOVERLAY, 0, STATIC
        ARGFRAME DOVERLAY, 0, STATIC
        EXTERN osal_memcpy
        FUNCTION osal_memcpy,0202H
        ARGFRAME ISTACK, 0, STACK
        ARGFRAME PSTACK, 0, STACK
        ARGFRAME XSTACK, 43, STACK
        ARGFRAME IOVERLAY, 0, STATIC
        ARGFRAME DOVERLAY, 0, STATIC
        EXTERN HalUARTOpen
        FUNCTION HalUARTOpen,0202H
        ARGFRAME ISTACK, 0, STACK
        ARGFRAME PSTACK, 0, STACK
        ARGFRAME XSTACK, 40, STACK
        ARGFRAME IOVERLAY, 0, STATIC
        ARGFRAME DOVERLAY, 0, STATIC
        EXTERN macRadioUpdateTxPower
        FUNCTION macRadioUpdateTxPower,0202H
        ARGFRAME ISTACK, 0, STACK
        ARGFRAME PSTACK, 0, STACK
        ARGFRAME XSTACK, 40, STACK
        ARGFRAME IOVERLAY, 0, STATIC
        ARGFRAME DOVERLAY, 0, STATIC
        EXTERN afRegister
        FUNCTION afRegister,0202H
        ARGFRAME ISTACK, 0, STACK
        ARGFRAME PSTACK, 0, STACK
        ARGFRAME XSTACK, 40, STACK
        ARGFRAME IOVERLAY, 0, STATIC
        ARGFRAME DOVERLAY, 0, STATIC
        EXTERN osal_msg_receive
        FUNCTION osal_msg_receive,0202H
        ARGFRAME ISTACK, 0, STACK
        ARGFRAME PSTACK, 0, STACK
        ARGFRAME XSTACK, 12, STACK
        ARGFRAME IOVERLAY, 0, STATIC
        ARGFRAME DOVERLAY, 0, STATIC
        EXTERN HalLedBlink
        FUNCTION HalLedBlink,0202H
        ARGFRAME ISTACK, 0, STACK
        ARGFRAME PSTACK, 0, STACK
        ARGFRAME XSTACK, 22, STACK
        ARGFRAME IOVERLAY, 0, STATIC
        ARGFRAME DOVERLAY, 0, STATIC
        EXTERN osal_start_timerEx
        FUNCTION osal_start_timerEx,0202H
        ARGFRAME ISTACK, 0, STACK
        ARGFRAME PSTACK, 0, STACK
        ARGFRAME XSTACK, 12, STACK
        ARGFRAME IOVERLAY, 0, STATIC
        ARGFRAME DOVERLAY, 0, STATIC
        EXTERN osal_msg_deallocate
        FUNCTION osal_msg_deallocate,0202H
        ARGFRAME ISTACK, 0, STACK
        ARGFRAME PSTACK, 0, STACK
        ARGFRAME XSTACK, 12, STACK
        ARGFRAME IOVERLAY, 0, STATIC
        ARGFRAME DOVERLAY, 0, STATIC
        EXTERN HalLedSet
        FUNCTION HalLedSet,0202H
        ARGFRAME ISTACK, 0, STACK
        ARGFRAME PSTACK, 0, STACK
        ARGFRAME XSTACK, 12, STACK
        ARGFRAME IOVERLAY, 0, STATIC
        ARGFRAME DOVERLAY, 0, STATIC
        EXTERN HalUARTWrite
        FUNCTION HalUARTWrite,0202H
        ARGFRAME ISTACK, 0, STACK
        ARGFRAME PSTACK, 0, STACK
        ARGFRAME XSTACK, 12, STACK
        ARGFRAME IOVERLAY, 0, STATIC
        ARGFRAME DOVERLAY, 0, STATIC
        EXTERN AF_DataRequest
        FUNCTION AF_DataRequest,0202H
        ARGFRAME ISTACK, 0, STACK
        ARGFRAME PSTACK, 0, STACK
        ARGFRAME XSTACK, 31, STACK
        ARGFRAME IOVERLAY, 0, STATIC
        ARGFRAME DOVERLAY, 0, STATIC
        EXTERN HalUARTRead
        FUNCTION HalUARTRead,0202H
        ARGFRAME ISTACK, 0, STACK
        ARGFRAME PSTACK, 0, STACK
        ARGFRAME XSTACK, 11, STACK
        ARGFRAME IOVERLAY, 0, STATIC
        ARGFRAME DOVERLAY, 0, STATIC
        EXTERN ??AF_DataRequest?relay
        FUNCTION ??AF_DataRequest?relay,00H
        EXTERN ??HalLedBlink?relay
        FUNCTION ??HalLedBlink?relay,00H
        EXTERN ??HalLedSet?relay
        FUNCTION ??HalLedSet?relay,00H
        EXTERN ??HalUARTOpen?relay
        FUNCTION ??HalUARTOpen?relay,00H
        EXTERN ??HalUARTRead?relay
        FUNCTION ??HalUARTRead?relay,00H
        EXTERN ??HalUARTWrite?relay
        FUNCTION ??HalUARTWrite?relay,00H
        EXTERN ??NLME_GetExtAddr?relay
        FUNCTION ??NLME_GetExtAddr?relay,00H
        EXTERN ??afRegister?relay
        FUNCTION ??afRegister?relay,00H
        EXTERN ??macRadioUpdateTxPower?relay
        FUNCTION ??macRadioUpdateTxPower?relay,00H
        EXTERN ??osal_memcpy?relay
        FUNCTION ??osal_memcpy?relay,00H
        EXTERN ??osal_msg_deallocate?relay
        FUNCTION ??osal_msg_deallocate?relay,00H
        EXTERN ??osal_msg_receive?relay
        FUNCTION ??osal_msg_receive?relay,00H
        EXTERN ??osal_start_timerEx?relay
        FUNCTION ??osal_start_timerEx?relay,00H

// F:\ZStack-2.5.1a\Projects\zstack\Samples\Photovoltaic\Source\Router&&Enddevice.c
//    1 #include "OSAL.h"
//    2 #include "AF.h"
//    3 #include "ZDApp.h"
//    4 #include "ZDObject.h"
//    5 #include "ZDProfile.h"
//    6 
//    7 #include "Common.h"
//    8 #include "DebugTrace.h"
//    9 #include <assert.h>
//   10 
//   11 #if !defined( WIN32 )
//   12   #include "OnBoard.h"

        ASEGN SFR_AN:DATA:NOROOT,080H
// union <unnamed> volatile __sfr _A_P0
_A_P0:
        DATA8
        DS 1

        ASEGN SFR_AN:DATA:NOROOT,0fdH
// unsigned char volatile __sfr P0DIR
P0DIR:
        DATA8
        DS 1
//   13 #endif
//   14 
//   15 /* HAL */
//   16 #include "hal_lcd.h"
//   17 #include "hal_led.h"
//   18 #include "hal_key.h"
//   19 #include "hal_uart.h"
//   20 
//   21 
//   22 /**Add By  Yao Bin ***/
//   23 #if !defined( SERIAL_APP_TX_MAX )
//   24 #define SERIAL_APP_TX_MAX  64
//   25 #endif
//   26 #if !defined( SERIAL_APP_RADIO_MAX )
//   27 #define SERIAL_APP_RADIO_MAX  64
//   28 #endif
//   29 
//   30 typedef struct D_MESSAGE{
//   31   uint16 address;
//   32   uint16 len;
//   33 }D_Message_t;
//   34 
//   35 #ifdef PV_METEOROLOGY_STA     /** 光伏气象站 --锦州阳光 **/
//   36   #define DEVICE_TYPE 1

        RSEG XDATA_I:XDATA:NOROOT(0)
//   37   D_Message_t d_message[]={{0x0000,11},{0x000B,11}}; 
d_message:
        DATA8
        DS 8
        REQUIRE `?<Initializer for d_message>`
        REQUIRE __INIT_XDATA_I
//   38 #elif PV_COMBINER_BOX         /** 光伏直流汇流箱 --温州科宇 **/     
//   39   #define DEVICE_TYPE 2
//   40   D_Message_t d_message[]={{0x1000,12},{0x100C,13},{0x1019,12},{0x1025,12},{0x1031,12},{0x103D,14},{0x104B,7}};
//   41 #elif AGR_METEOROLOGY_STA     /** 农业气象站 --锦州阳光 **/    
//   42   #define DEVICE_TYPE 3
//   43   D_Message_t d_message[]={{0x0000,11},{0x000B,11},{0x0016,11},{0x0021,10}};
//   44 #else
//   45   assert(0);//需要定义 PV_COMBINER or METEOROLOGICAL
//   46 #endif

        RSEG XDATA_Z:XDATA:NOROOT(0)
        DATA8
//   47 static uint8 SerialApp_TxLen;
SerialApp_TxLen:
        DS 1
        REQUIRE __INIT_XDATA_Z

        RSEG XDATA_Z:XDATA:NOROOT(0)
        DATA8
//   48 byte Uart_RxBuf[SERIAL_APP_TX_MAX+1];
Uart_RxBuf:
        DS 65
        REQUIRE __INIT_XDATA_Z

        RSEG XDATA_I:XDATA:NOROOT(0)
//   49 byte send_modbus_data[8]={Modbus_Addr,0x03};
send_modbus_data:
        DATA8
        DS 8
        REQUIRE `?<Initializer for send_modbus_data>`
        REQUIRE __INIT_XDATA_I

        RSEG XDATA_Z:XDATA:NOROOT(0)
        DATA8
//   50 byte RadioBuf[SERIAL_APP_RADIO_MAX+1];
RadioBuf:
        DS 65
        REQUIRE __INIT_XDATA_Z

        RSEG XDATA_Z:XDATA:NOROOT(0)
        DATA8
//   51 static uint8 RadioHead_TxLen=0;
RadioHead_TxLen:
        DS 1
        REQUIRE __INIT_XDATA_Z

        RSEG XDATA_Z:XDATA:NOROOT(0)
        DATA8
//   52 static uint8 RadioApp_TxLen=0;
RadioApp_TxLen:
        DS 1
        REQUIRE __INIT_XDATA_Z
//   53 

        RSEG XDATA_Z:XDATA:NOROOT(0)
        DATA16
//   54 byte *eui64;
eui64:
        DS 2
        REQUIRE __INIT_XDATA_Z

        RSEG XDATA_I:XDATA:NOROOT(0)
//   55 static int group=sizeof(d_message)/sizeof(D_Message_t);
group:
        DATA16
        DS 2
        REQUIRE `?<Initializer for group>`
        REQUIRE __INIT_XDATA_I

        RSEG XDATA_Z:XDATA:NOROOT(0)
        DATA16
//   56 static int group_index=0;
group_index:
        DS 2
        REQUIRE __INIT_XDATA_Z

        RSEG XDATA_Z:XDATA:NOROOT(0)
        DATA16
//   57 static int time_interal=0;
time_interal:
        DS 2
        REQUIRE __INIT_XDATA_Z
//   58 //#ifdef LOW_THROUGHPUT

        RSEG XDATA_I:XDATA:NOROOT(0)
//   59 int radio_send_flag=1;
radio_send_flag:
        DATA16
        DS 2
        REQUIRE `?<Initializer for radio_send_flag>`
        REQUIRE __INIT_XDATA_I
//   60 //uint16 low_send_index=INTERVAL_SAMPLE;
//   61 //#endif
//   62 /**END**/
//   63 

        RSEG XDATA_ROM_C:CONST:REORDER:NOROOT(0)
        DATA16
//   64 const cId_t GenericApp_ClusterList[GENERICAPP_MAX_CLUSTERS] =
GenericApp_ClusterList:
        DW 1
//   65 {
//   66   GENERICAPP_CLUSTERID
//   67 };
//   68 

        RSEG XDATA_ROM_C:CONST:REORDER:NOROOT(0)
        DATA8
//   69 const SimpleDescriptionFormat_t GenericApp_SimpleDesc =
GenericApp_SimpleDesc:
        DB 10
        DATA16
        DW 3844
        DW 1
        DATA8
        DB 0
        DB 1
        DATA16
        DW GenericApp_ClusterList
        DATA8
        DB 1
        DATA16
        DW GenericApp_ClusterList
//   70 {
//   71   GENERICAPP_ENDPOINT,              //  int Endpoint;
//   72   GENERICAPP_PROFID,                //  uint16 AppProfId[2];
//   73   GENERICAPP_DEVICEID,              //  uint16 AppDeviceId[2];
//   74   GENERICAPP_DEVICE_VERSION,        //  int   AppDevVer:4;
//   75   GENERICAPP_FLAGS,                 //  int   AppFlags:4; 
//   76   GENERICAPP_MAX_CLUSTERS,          //  byte  AppNumInClusters;
//   77   (cId_t *)GenericApp_ClusterList,  //  byte *pAppInClusterList;
//   78   GENERICAPP_MAX_CLUSTERS,          //  byte  AppNumInClusters;
//   79   (cId_t *)GenericApp_ClusterList   //  byte *pAppInClusterList;
//   80 };
//   81 

        RSEG XDATA_Z:XDATA:NOROOT(0)
        DATA8
//   82 endPointDesc_t GenericApp_epDesc;
GenericApp_epDesc:
        DS 6
        REQUIRE __INIT_XDATA_Z

        RSEG XDATA_Z:XDATA:NOROOT(0)
        DATA8
//   83 byte GenericApp_TaskID;
GenericApp_TaskID:
        DS 1
        REQUIRE __INIT_XDATA_Z

        RSEG XDATA_Z:XDATA:NOROOT(0)
        DATA8
//   84 byte GenericApp_TransID;
GenericApp_TransID:
        DS 1
        REQUIRE __INIT_XDATA_Z

        RSEG XDATA_Z:XDATA:NOROOT(0)
        DATA8
//   85 devStates_t GenericApp_NwkState;
GenericApp_NwkState:
        DS 1
        REQUIRE __INIT_XDATA_Z
//   86 
//   87 //void GenericApp_MessageMSGCB( afIncomingMSGPacket_t *pckt );
//   88 void GenericApp_SendTheMessage(byte *RxBuf,uint8 len);
//   89 void rxCB(uint8 port,uint8 event);
//   90 uint16 CRC16_Check(uint8 *Pushdata,uint8 length);
//   91 void modus_first_deal(byte *RxBuf,uint8 len);
//   92 void modus_second_deal(byte *RxBuf,uint8 len);
//   93 void modus_third_deal(byte *RxBuf,uint8 len);
//   94 extern void macRadioUpdateTxPower(void);

        RSEG BANKED_CODE:CODE:NOROOT(0)
//   95 void GenericApp_Init( byte task_id )
GenericApp_Init:
        CFI Block cfiBlock0 Using cfiCommon0
        CFI Function GenericApp_Init
        CODE
//   96 { 
        FUNCALL GenericApp_Init, NLME_GetExtAddr
        LOCFRAME ISTACK, 0, STACK
        LOCFRAME PSTACK, 0, STACK
        LOCFRAME XSTACK, 40, STACK
        LOCFRAME IOVERLAY, 0, STATIC
        LOCFRAME DOVERLAY, 0, STATIC
        ARGFRAME ISTACK, 0, STACK
        ARGFRAME PSTACK, 0, STACK
        ARGFRAME XSTACK, 40, STACK
        ARGFRAME IOVERLAY, 0, STATIC
        ARGFRAME DOVERLAY, 0, STATIC
        FUNCALL GenericApp_Init, osal_memcpy
        LOCFRAME ISTACK, 0, STACK
        LOCFRAME PSTACK, 0, STACK
        LOCFRAME XSTACK, 43, STACK
        LOCFRAME IOVERLAY, 0, STATIC
        LOCFRAME DOVERLAY, 0, STATIC
        ARGFRAME ISTACK, 0, STACK
        ARGFRAME PSTACK, 0, STACK
        ARGFRAME XSTACK, 43, STACK
        ARGFRAME IOVERLAY, 0, STATIC
        ARGFRAME DOVERLAY, 0, STATIC
        FUNCALL GenericApp_Init, HalUARTOpen
        LOCFRAME ISTACK, 0, STACK
        LOCFRAME PSTACK, 0, STACK
        LOCFRAME XSTACK, 40, STACK
        LOCFRAME IOVERLAY, 0, STATIC
        LOCFRAME DOVERLAY, 0, STATIC
        ARGFRAME ISTACK, 0, STACK
        ARGFRAME PSTACK, 0, STACK
        ARGFRAME XSTACK, 40, STACK
        ARGFRAME IOVERLAY, 0, STATIC
        ARGFRAME DOVERLAY, 0, STATIC
        FUNCALL GenericApp_Init, macRadioUpdateTxPower
        LOCFRAME ISTACK, 0, STACK
        LOCFRAME PSTACK, 0, STACK
        LOCFRAME XSTACK, 40, STACK
        LOCFRAME IOVERLAY, 0, STATIC
        LOCFRAME DOVERLAY, 0, STATIC
        ARGFRAME ISTACK, 0, STACK
        ARGFRAME PSTACK, 0, STACK
        ARGFRAME XSTACK, 40, STACK
        ARGFRAME IOVERLAY, 0, STATIC
        ARGFRAME DOVERLAY, 0, STATIC
        FUNCALL GenericApp_Init, afRegister
        LOCFRAME ISTACK, 0, STACK
        LOCFRAME PSTACK, 0, STACK
        LOCFRAME XSTACK, 40, STACK
        LOCFRAME IOVERLAY, 0, STATIC
        LOCFRAME DOVERLAY, 0, STATIC
        ARGFRAME ISTACK, 0, STACK
        ARGFRAME PSTACK, 0, STACK
        ARGFRAME XSTACK, 40, STACK
        ARGFRAME IOVERLAY, 0, STATIC
        ARGFRAME DOVERLAY, 0, STATIC
        MOV     A,#-0xb
        LCALL   ?BANKED_ENTER_XDATA
        CFI DPH0 load(1, XDATA, add(CFA_XSP16, literal(-1)))
        CFI DPL0 load(1, XDATA, add(CFA_XSP16, literal(-2)))
        CFI ?BRET_EXT load(1, XDATA, add(CFA_XSP16, literal(-3)))
        CFI ?RET_HIGH load(1, XDATA, add(CFA_XSP16, literal(-4)))
        CFI ?RET_LOW load(1, XDATA, add(CFA_XSP16, literal(-5)))
        CFI R7 load(1, XDATA, add(CFA_XSP16, literal(-6)))
        CFI V2 load(1, XDATA, add(CFA_XSP16, literal(-7)))
        CFI V1 load(1, XDATA, add(CFA_XSP16, literal(-8)))
        CFI V0 load(1, XDATA, add(CFA_XSP16, literal(-9)))
        CFI VB load(1, XDATA, add(CFA_XSP16, literal(-10)))
        CFI R6 load(1, XDATA, add(CFA_XSP16, literal(-11)))
        CFI CFA_SP SP+0
        CFI CFA_XSP16 add(XSP16, 11)
        ; Saved register size: 11
        ; Auto size: 29
        MOV     A,#-0x1d
        LCALL   ?ALLOC_XSTACK8
        CFI CFA_XSP16 add(XSP16, 40)
        MOV     A,R1
        MOV     R6,A
//   97 /***Add By Bin Yao for UART test****/
//   98   RadioBuf[RadioHead_TxLen++]=SERIAL_APP_RADIO_HEAD1;
        MOV     DPTR,#RadioHead_TxLen
        LCALL   ?Subroutine2 & 0xFFFF
??CrossCallReturnLabel_15:
        MOV     A,#0x7e
        LCALL   ?Subroutine7 & 0xFFFF
//   99   RadioBuf[RadioHead_TxLen++]=SERIAL_APP_RADIO_HEAD2;
??CrossCallReturnLabel_10:
        LCALL   ??Subroutine8_0 & 0xFFFF
??CrossCallReturnLabel_13:
        MOV     A,#-0x5b
        LCALL   ?Subroutine7 & 0xFFFF
//  100   eui64=NLME_GetExtAddr();//get the EUI-64 Address
??CrossCallReturnLabel_11:
        ; Setup parameters for call to function NLME_GetExtAddr
        LCALL   ??NLME_GetExtAddr?relay
        MOV     DPTR,#eui64
        MOV     A,R2
        MOVX    @DPTR,A
        INC     DPTR
        MOV     A,R3
        MOVX    @DPTR,A
//  101   osal_memcpy(RadioBuf+RadioHead_TxLen,eui64,8);
        ; Setup parameters for call to function osal_memcpy
        MOV     DPTR,#eui64
        MOVX    A,@DPTR
        MOV     ?V0 + 0,A
        INC     DPTR
        MOVX    A,@DPTR
        MOV     ?V0 + 1,A
        MOV     ?V0 + 2,#0x0
        MOV     R0,#?V0 + 0
        LCALL   ?PUSH_XSTACK_I_THREE
        CFI CFA_XSP16 add(XSP16, 43)
        MOV     R4,#0x8
        MOV     R5,#0x0
        MOV     DPTR,#RadioHead_TxLen
        LCALL   ?Subroutine3 & 0xFFFF
??CrossCallReturnLabel_0:
        LCALL   ?DEALLOC_XSTACK8
        CFI CFA_XSP16 add(XSP16, 40)
//  102   RadioHead_TxLen+=8;
        MOV     DPTR,#RadioHead_TxLen
        MOVX    A,@DPTR
        ADD     A,#0x8
        MOVX    @DPTR,A
//  103   RadioBuf[RadioHead_TxLen++]=DEVICE_TYPE;//设备类型
        LCALL   ??Subroutine8_0 & 0xFFFF
??CrossCallReturnLabel_14:
        MOV     A,#0x1
        LCALL   ?Subroutine7 & 0xFFFF
//  104   halUARTCfg_t uartConfig;
//  105   uartConfig.configured           = TRUE;              // 2x30 don't care - see uart driver.
??CrossCallReturnLabel_12:
        MOV     DPL,?XSP + 0
        MOV     DPH,?XSP + 1
        MOV     A,#0x1
        MOVX    @DPTR,A
//  106   uartConfig.baudRate             = HAL_UART_BR_9600;
        LCALL   ?XSTACK_DISP0_8
        CLR     A
        MOVX    @DPTR,A
//  107   uartConfig.flowControl          = FALSE;
        MOV     A,#0x2
        LCALL   ?XSTACK_DISP0_8
        CLR     A
        MOVX    @DPTR,A
//  108   uartConfig.flowControlThreshold = 64;   // 2x30 don't care - see uart driver.
        MOV     A,#0x3
        LCALL   ?XSTACK_DISP0_8
        MOV     A,#0x40
        MOVX    @DPTR,A
        INC     DPTR
        CLR     A
        MOVX    @DPTR,A
//  109   uartConfig.rx.maxBufSize        = 128;  // 2x30 don't care - see uart driver.
        MOV     A,#0xa
        LCALL   ?XSTACK_DISP0_8
        MOV     A,#-0x80
        MOVX    @DPTR,A
        INC     DPTR
        CLR     A
        MOVX    @DPTR,A
//  110   uartConfig.tx.maxBufSize        = 128;  // 2x30 don't care - see uart driver.
        MOV     A,#0x12
        LCALL   ?XSTACK_DISP0_8
        MOV     A,#-0x80
        MOVX    @DPTR,A
        INC     DPTR
        CLR     A
        MOVX    @DPTR,A
//  111   uartConfig.idleTimeout          = 6;    // 2x30 don't care - see uart driver.
        MOV     A,#0x5
        LCALL   ?XSTACK_DISP0_8
        MOV     A,#0x6
        MOVX    @DPTR,A
//  112   uartConfig.intEnable            = TRUE; // 2x30 don't care - see uart driver.
        MOV     A,#0x16
        LCALL   ?XSTACK_DISP0_8
        MOV     A,#0x1
        MOVX    @DPTR,A
//  113   uartConfig.callBackFunc         = rxCB;
        MOV     A,#0x1b
        LCALL   ?XSTACK_DISP0_8
        MOV     A,#??rxCB?relay & 0xff
        MOVX    @DPTR,A
        INC     DPTR
        MOV     A,#(??rxCB?relay >> 8) & 0xff
        MOVX    @DPTR,A
//  114   HalUARTOpen (0, &uartConfig);
        ; Setup parameters for call to function HalUARTOpen
        MOV     DPL,?XSP + 0
        MOV     DPH,?XSP + 1
        MOV     R2,DPL
        MOV     R3,DPH
        MOV     R1,#0x0
        LCALL   ??HalUARTOpen?relay
//  115   
//  116   IO_OUTPUT_485;                //设置485/IO口为输出
        ORL     0xfd,#0x80
//  117   RECV_485;//receive
        CLR     0x80.7
//  118   macRadioUpdateTxPower();
        ; Setup parameters for call to function macRadioUpdateTxPower
        LCALL   ??macRadioUpdateTxPower?relay
//  119 /**END*****/  
//  120   
//  121   GenericApp_TaskID = task_id;
        MOV     A,R6
        MOV     DPTR,#GenericApp_TaskID
        MOVX    @DPTR,A
//  122   GenericApp_NwkState=DEV_INIT;
        MOV     DPTR,#GenericApp_NwkState
        MOV     A,#0x1
        MOVX    @DPTR,A
//  123   GenericApp_TransID = 0;
        MOV     DPTR,#GenericApp_TransID
        CLR     A
        MOVX    @DPTR,A
//  124     
//  125   GenericApp_epDesc.endPoint = GENERICAPP_ENDPOINT;
        MOV     DPTR,#GenericApp_epDesc
        MOV     A,#0xa
        MOVX    @DPTR,A
//  126   GenericApp_epDesc.task_id = &GenericApp_TaskID;
        INC     DPTR
        MOV     A,#GenericApp_TaskID & 0xff
        MOVX    @DPTR,A
        INC     DPTR
        MOV     A,#(GenericApp_TaskID >> 8) & 0xff
        MOVX    @DPTR,A
//  127   GenericApp_epDesc.simpleDesc= (SimpleDescriptionFormat_t *)&GenericApp_SimpleDesc;
        INC     DPTR
        MOV     A,#GenericApp_SimpleDesc & 0xff
        MOVX    @DPTR,A
        INC     DPTR
        MOV     A,#(GenericApp_SimpleDesc >> 8) & 0xff
        MOVX    @DPTR,A
//  128   GenericApp_epDesc.latencyReq = noLatencyReqs;
        INC     DPTR
        CLR     A
        MOVX    @DPTR,A
//  129   afRegister( &GenericApp_epDesc ); 
        ; Setup parameters for call to function afRegister
        MOV     R2,#GenericApp_epDesc & 0xff
        MOV     R3,#(GenericApp_epDesc >> 8) & 0xff
        LCALL   ??afRegister?relay
//  130 }
        MOV     A,#0x1d
        LCALL   ?DEALLOC_XSTACK8
        CFI EndBlock cfiBlock0
        REQUIRE ?Subroutine0
        REQUIRE P0DIR
        REQUIRE _A_P0
        ; // Fall through to label ?Subroutine0

        RSEG BANKED_CODE:CODE:NOROOT(0)
?Subroutine0:
        CFI Block cfiBlock1 Using cfiCommon0
        CFI NoFunction
        CFI CFA_SP SP+0
        CFI CFA_XSP16 add(XSP16, 11)
        CFI VB load(1, XDATA, add(CFA_XSP16, literal(-10)))
        CFI DPL0 load(1, XDATA, add(CFA_XSP16, literal(-2)))
        CFI DPH0 load(1, XDATA, add(CFA_XSP16, literal(-1)))
        CFI R6 load(1, XDATA, add(CFA_XSP16, literal(-11)))
        CFI R7 load(1, XDATA, add(CFA_XSP16, literal(-6)))
        CFI V0 load(1, XDATA, add(CFA_XSP16, literal(-9)))
        CFI V1 load(1, XDATA, add(CFA_XSP16, literal(-8)))
        CFI V2 load(1, XDATA, add(CFA_XSP16, literal(-7)))
        CFI ?BRET_EXT load(1, XDATA, add(CFA_XSP16, literal(-3)))
        CFI ?RET_HIGH load(1, XDATA, add(CFA_XSP16, literal(-4)))
        CFI ?RET_LOW load(1, XDATA, add(CFA_XSP16, literal(-5)))
        MOV     R7,#0x3
        LJMP    ?BANKED_LEAVE_XDATA
        CFI EndBlock cfiBlock1

        RSEG BANKED_CODE:CODE:NOROOT(0)
?Subroutine7:
        CFI Block cfiCond2 Using cfiCommon0
        CFI NoFunction
        CFI Conditional ??CrossCallReturnLabel_10
        CFI R6 load(1, XDATA, add(CFA_XSP16, literal(-11)))
        CFI VB load(1, XDATA, add(CFA_XSP16, literal(-10)))
        CFI V0 load(1, XDATA, add(CFA_XSP16, literal(-9)))
        CFI V1 load(1, XDATA, add(CFA_XSP16, literal(-8)))
        CFI V2 load(1, XDATA, add(CFA_XSP16, literal(-7)))
        CFI R7 load(1, XDATA, add(CFA_XSP16, literal(-6)))
        CFI ?RET_LOW load(1, XDATA, add(CFA_XSP16, literal(-5)))
        CFI ?RET_HIGH load(1, XDATA, add(CFA_XSP16, literal(-4)))
        CFI ?BRET_EXT load(1, XDATA, add(CFA_XSP16, literal(-3)))
        CFI DPL0 load(1, XDATA, add(CFA_XSP16, literal(-2)))
        CFI DPH0 load(1, XDATA, add(CFA_XSP16, literal(-1)))
        CFI CFA_SP SP+0
        CFI CFA_XSP16 add(XSP16, 40)
        CFI Block cfiCond3 Using cfiCommon0
        CFI (cfiCond3) NoFunction
        CFI (cfiCond3) Conditional ??CrossCallReturnLabel_11
        CFI (cfiCond3) R6 load(1, XDATA, add(CFA_XSP16, literal(-11)))
        CFI (cfiCond3) VB load(1, XDATA, add(CFA_XSP16, literal(-10)))
        CFI (cfiCond3) V0 load(1, XDATA, add(CFA_XSP16, literal(-9)))
        CFI (cfiCond3) V1 load(1, XDATA, add(CFA_XSP16, literal(-8)))
        CFI (cfiCond3) V2 load(1, XDATA, add(CFA_XSP16, literal(-7)))
        CFI (cfiCond3) R7 load(1, XDATA, add(CFA_XSP16, literal(-6)))
        CFI (cfiCond3) ?RET_LOW load(1, XDATA, add(CFA_XSP16, literal(-5)))
        CFI (cfiCond3) ?RET_HIGH load(1, XDATA, add(CFA_XSP16, literal(-4)))
        CFI (cfiCond3) ?BRET_EXT load(1, XDATA, add(CFA_XSP16, literal(-3)))
        CFI (cfiCond3) DPL0 load(1, XDATA, add(CFA_XSP16, literal(-2)))
        CFI (cfiCond3) DPH0 load(1, XDATA, add(CFA_XSP16, literal(-1)))
        CFI (cfiCond3) CFA_SP SP+0
        CFI (cfiCond3) CFA_XSP16 add(XSP16, 40)
        CFI Block cfiCond4 Using cfiCommon0
        CFI (cfiCond4) NoFunction
        CFI (cfiCond4) Conditional ??CrossCallReturnLabel_12
        CFI (cfiCond4) R6 load(1, XDATA, add(CFA_XSP16, literal(-11)))
        CFI (cfiCond4) VB load(1, XDATA, add(CFA_XSP16, literal(-10)))
        CFI (cfiCond4) V0 load(1, XDATA, add(CFA_XSP16, literal(-9)))
        CFI (cfiCond4) V1 load(1, XDATA, add(CFA_XSP16, literal(-8)))
        CFI (cfiCond4) V2 load(1, XDATA, add(CFA_XSP16, literal(-7)))
        CFI (cfiCond4) R7 load(1, XDATA, add(CFA_XSP16, literal(-6)))
        CFI (cfiCond4) ?RET_LOW load(1, XDATA, add(CFA_XSP16, literal(-5)))
        CFI (cfiCond4) ?RET_HIGH load(1, XDATA, add(CFA_XSP16, literal(-4)))
        CFI (cfiCond4) ?BRET_EXT load(1, XDATA, add(CFA_XSP16, literal(-3)))
        CFI (cfiCond4) DPL0 load(1, XDATA, add(CFA_XSP16, literal(-2)))
        CFI (cfiCond4) DPH0 load(1, XDATA, add(CFA_XSP16, literal(-1)))
        CFI (cfiCond4) CFA_SP SP+0
        CFI (cfiCond4) CFA_XSP16 add(XSP16, 40)
        CFI Block cfiPicker5 Using cfiCommon1
        CFI (cfiPicker5) NoFunction
        CFI (cfiPicker5) Picker
        MOVX    @DPTR,A
        MOV     DPTR,#RadioHead_TxLen
        MOVX    A,@DPTR
        INC     A
        MOVX    @DPTR,A
        RET
        CFI EndBlock cfiCond2
        CFI EndBlock cfiCond3
        CFI EndBlock cfiCond4
        CFI EndBlock cfiPicker5
//  131 

        RSEG BANKED_CODE:CODE:NOROOT(0)
//  132 UINT16 GenericApp_ProcessEvent( byte task_id, UINT16 events )
GenericApp_ProcessEvent:
        CFI Block cfiBlock6 Using cfiCommon0
        CFI Function GenericApp_ProcessEvent
        CODE
//  133 {
        FUNCALL GenericApp_ProcessEvent, osal_msg_receive
        LOCFRAME ISTACK, 0, STACK
        LOCFRAME PSTACK, 0, STACK
        LOCFRAME XSTACK, 12, STACK
        LOCFRAME IOVERLAY, 0, STATIC
        LOCFRAME DOVERLAY, 0, STATIC
        ARGFRAME ISTACK, 0, STACK
        ARGFRAME PSTACK, 0, STACK
        ARGFRAME XSTACK, 12, STACK
        ARGFRAME IOVERLAY, 0, STATIC
        ARGFRAME DOVERLAY, 0, STATIC
        FUNCALL GenericApp_ProcessEvent, HalLedBlink
        LOCFRAME ISTACK, 0, STACK
        LOCFRAME PSTACK, 0, STACK
        LOCFRAME XSTACK, 12, STACK
        LOCFRAME IOVERLAY, 0, STATIC
        LOCFRAME DOVERLAY, 0, STATIC
        ARGFRAME ISTACK, 0, STACK
        ARGFRAME PSTACK, 0, STACK
        ARGFRAME XSTACK, 12, STACK
        ARGFRAME IOVERLAY, 0, STATIC
        ARGFRAME DOVERLAY, 0, STATIC
        FUNCALL GenericApp_ProcessEvent, osal_start_timerEx
        LOCFRAME ISTACK, 0, STACK
        LOCFRAME PSTACK, 0, STACK
        LOCFRAME XSTACK, 12, STACK
        LOCFRAME IOVERLAY, 0, STATIC
        LOCFRAME DOVERLAY, 0, STATIC
        ARGFRAME ISTACK, 0, STACK
        ARGFRAME PSTACK, 0, STACK
        ARGFRAME XSTACK, 12, STACK
        ARGFRAME IOVERLAY, 0, STATIC
        ARGFRAME DOVERLAY, 0, STATIC
        FUNCALL GenericApp_ProcessEvent, osal_msg_deallocate
        LOCFRAME ISTACK, 0, STACK
        LOCFRAME PSTACK, 0, STACK
        LOCFRAME XSTACK, 12, STACK
        LOCFRAME IOVERLAY, 0, STATIC
        LOCFRAME DOVERLAY, 0, STATIC
        ARGFRAME ISTACK, 0, STACK
        ARGFRAME PSTACK, 0, STACK
        ARGFRAME XSTACK, 12, STACK
        ARGFRAME IOVERLAY, 0, STATIC
        ARGFRAME DOVERLAY, 0, STATIC
        FUNCALL GenericApp_ProcessEvent, osal_msg_receive
        LOCFRAME ISTACK, 0, STACK
        LOCFRAME PSTACK, 0, STACK
        LOCFRAME XSTACK, 12, STACK
        LOCFRAME IOVERLAY, 0, STATIC
        LOCFRAME DOVERLAY, 0, STATIC
        ARGFRAME ISTACK, 0, STACK
        ARGFRAME PSTACK, 0, STACK
        ARGFRAME XSTACK, 12, STACK
        ARGFRAME IOVERLAY, 0, STATIC
        ARGFRAME DOVERLAY, 0, STATIC
        FUNCALL GenericApp_ProcessEvent, HalLedSet
        LOCFRAME ISTACK, 0, STACK
        LOCFRAME PSTACK, 0, STACK
        LOCFRAME XSTACK, 12, STACK
        LOCFRAME IOVERLAY, 0, STATIC
        LOCFRAME DOVERLAY, 0, STATIC
        ARGFRAME ISTACK, 0, STACK
        ARGFRAME PSTACK, 0, STACK
        ARGFRAME XSTACK, 12, STACK
        ARGFRAME IOVERLAY, 0, STATIC
        ARGFRAME DOVERLAY, 0, STATIC
        FUNCALL GenericApp_ProcessEvent, CRC16_Check
        LOCFRAME ISTACK, 0, STACK
        LOCFRAME PSTACK, 0, STACK
        LOCFRAME XSTACK, 12, STACK
        LOCFRAME IOVERLAY, 0, STATIC
        LOCFRAME DOVERLAY, 0, STATIC
        ARGFRAME ISTACK, 0, STACK
        ARGFRAME PSTACK, 0, STACK
        ARGFRAME XSTACK, 12, STACK
        ARGFRAME IOVERLAY, 0, STATIC
        ARGFRAME DOVERLAY, 0, STATIC
        FUNCALL GenericApp_ProcessEvent, HalUARTWrite
        LOCFRAME ISTACK, 0, STACK
        LOCFRAME PSTACK, 0, STACK
        LOCFRAME XSTACK, 12, STACK
        LOCFRAME IOVERLAY, 0, STATIC
        LOCFRAME DOVERLAY, 0, STATIC
        ARGFRAME ISTACK, 0, STACK
        ARGFRAME PSTACK, 0, STACK
        ARGFRAME XSTACK, 12, STACK
        ARGFRAME IOVERLAY, 0, STATIC
        ARGFRAME DOVERLAY, 0, STATIC
        FUNCALL GenericApp_ProcessEvent, osal_start_timerEx
        LOCFRAME ISTACK, 0, STACK
        LOCFRAME PSTACK, 0, STACK
        LOCFRAME XSTACK, 12, STACK
        LOCFRAME IOVERLAY, 0, STATIC
        LOCFRAME DOVERLAY, 0, STATIC
        ARGFRAME ISTACK, 0, STACK
        ARGFRAME PSTACK, 0, STACK
        ARGFRAME XSTACK, 12, STACK
        ARGFRAME IOVERLAY, 0, STATIC
        ARGFRAME DOVERLAY, 0, STATIC
        MOV     A,#-0xc
        LCALL   ?BANKED_ENTER_XDATA
        CFI DPH0 load(1, XDATA, add(CFA_XSP16, literal(-1)))
        CFI DPL0 load(1, XDATA, add(CFA_XSP16, literal(-2)))
        CFI ?BRET_EXT load(1, XDATA, add(CFA_XSP16, literal(-3)))
        CFI ?RET_HIGH load(1, XDATA, add(CFA_XSP16, literal(-4)))
        CFI ?RET_LOW load(1, XDATA, add(CFA_XSP16, literal(-5)))
        CFI R7 load(1, XDATA, add(CFA_XSP16, literal(-6)))
        CFI V3 load(1, XDATA, add(CFA_XSP16, literal(-7)))
        CFI V2 load(1, XDATA, add(CFA_XSP16, literal(-8)))
        CFI V1 load(1, XDATA, add(CFA_XSP16, literal(-9)))
        CFI V0 load(1, XDATA, add(CFA_XSP16, literal(-10)))
        CFI VB load(1, XDATA, add(CFA_XSP16, literal(-11)))
        CFI R6 load(1, XDATA, add(CFA_XSP16, literal(-12)))
        CFI CFA_SP SP+0
        CFI CFA_XSP16 add(XSP16, 12)
        ; Saved register size: 12
        ; Auto size: 0
        MOV     A,R2
        MOV     R6,A
        MOV     A,R3
        MOV     R7,A
//  134     afIncomingMSGPacket_t *MSGpkt;
//  135     if ( events & SYS_EVENT_MSG )
        ANL     A,#0x80
        JZ      ??GenericApp_ProcessEvent_0
//  136     {
//  137         MSGpkt = (afIncomingMSGPacket_t *)osal_msg_receive( GenericApp_TaskID );
        ; Setup parameters for call to function osal_msg_receive
        SJMP    ??GenericApp_ProcessEvent_1
//  138         while ( MSGpkt )
//  139         {
//  140             switch ( MSGpkt->hdr.event )
??GenericApp_ProcessEvent_2:
        MOV     DPL,?V0 + 0
        MOV     DPH,?V0 + 1
        MOVX    A,@DPTR
        XRL     A,#0xd1
        JNZ     ??GenericApp_ProcessEvent_3
//  141             {
//  142             case AF_INCOMING_MSG_CMD:
//  143                 //GenericApp_MessageMSGCB(MSGpkt);
//  144                 break;
//  145             case ZDO_STATE_CHANGE:
//  146                 GenericApp_NwkState = (devStates_t)(MSGpkt->hdr.status);
        INC     DPTR
        MOVX    A,@DPTR
        MOV     DPTR,#GenericApp_NwkState
        MOVX    @DPTR,A
//  147                 if(GenericApp_NwkState == DEV_ROUTER||GenericApp_NwkState == DEV_END_DEVICE)
        XRL     A,#0x7
        JZ      ??GenericApp_ProcessEvent_4
        MOVX    A,@DPTR
        XRL     A,#0x6
        JNZ     ??GenericApp_ProcessEvent_3
//  148                 {
//  149                   HalLedBlink(HAL_LED_2, 3, 50, 500);//Led2闪烁3次，表示组网成功.
??GenericApp_ProcessEvent_4:
        ; Setup parameters for call to function HalLedBlink
        MOV     R4,#-0xc
        MOV     R5,#0x1
        MOV     R3,#0x32
        MOV     R2,#0x3
        MOV     R1,#0x2
        LCALL   ??HalLedBlink?relay
//  150                   osal_start_timerEx( GenericApp_TaskID,
//  151                                      GENERICAPP_SEND_MSG_EVT,
//  152                                      GENERICAPP_SEND_MSG_TIMEOUT );
        ; Setup parameters for call to function osal_start_timerEx
        MOV     R4,#-0x3c
        MOV     R5,#0x9
        MOV     R2,#0x1
        MOV     R3,#0x0
        MOV     DPTR,#GenericApp_TaskID
        MOVX    A,@DPTR
        MOV     R1,A
        LCALL   ??osal_start_timerEx?relay
//  153                 }
//  154                 break;
//  155             default:
//  156                 break;
//  157             }
//  158             osal_msg_deallocate( (uint8 *)MSGpkt );
??GenericApp_ProcessEvent_3:
        ; Setup parameters for call to function osal_msg_deallocate
        MOV     R2,?V0 + 0
        MOV     R3,?V0 + 1
        LCALL   ??osal_msg_deallocate?relay
//  159             MSGpkt = (afIncomingMSGPacket_t *)osal_msg_receive( GenericApp_TaskID );
        ; Setup parameters for call to function osal_msg_receive
??GenericApp_ProcessEvent_1:
        MOV     DPTR,#GenericApp_TaskID
        MOVX    A,@DPTR
        MOV     R1,A
        LCALL   ??osal_msg_receive?relay
        MOV     ?V0 + 0,R2
        MOV     ?V0 + 1,R3
//  160         }     
        MOV     A,?V0 + 0
        ORL     A,?V0 + 1
        JNZ     ??GenericApp_ProcessEvent_2
//  161         // return unprocessed events
//  162         return (events ^ SYS_EVENT_MSG);
        MOV     A,R6
        MOV     R2,A
        MOV     A,R7
        XRL     A,#0x80
??GenericApp_ProcessEvent_5:
        MOV     R3,A
        LJMP    ??GenericApp_ProcessEvent_6 & 0xFFFF
//  163     }
//  164     if ( events & GENERICAPP_SEND_MSG_EVT )
??GenericApp_ProcessEvent_0:
        MOV     A,R6
        MOV     C,0xE0 /* A   */.0
        JC      $+5
        LJMP    ??GenericApp_ProcessEvent_7 & 0xFFFF
//  165     {
//  166       if(group_index>=group){
        MOV     DPTR,#group
        MOVX    A,@DPTR
        MOV     R0,A
        INC     DPTR
        MOVX    A,@DPTR
        MOV     R1,A
        MOV     DPH,#(group_index >> 8) & 0xff
        MOV     DPL,#group_index & 0xff
        CLR     C
        MOVX    A,@DPTR
        SUBB    A,R0
        INC     DPTR
        MOVX    A,@DPTR
        SUBB    A,R1
        MOV     C,0xD0 /* PSW */.2
        XRL     A,PSW
        RLC     A
        MOV     DPTR,#radio_send_flag
        JC      ??GenericApp_ProcessEvent_8
//  167         radio_send_flag=0;
        CLR     A
        MOVX    @DPTR,A
        INC     DPTR
        MOVX    @DPTR,A
//  168         time_interal++;
        MOV     DPTR,#time_interal
        LCALL   ?Subroutine5 & 0xFFFF
//  169         if(time_interal>=INTERVAL_SAMPLE_ACTUAL/GENERICAPP_SEND_MSG_TIMEOUT*INTERVAL_SAMPLE){
??CrossCallReturnLabel_4:
        MOV     DPTR,#time_interal
        CLR     C
        MOVX    A,@DPTR
        SUBB    A,#-0x10
        INC     DPTR
        MOVX    A,@DPTR
        SUBB    A,#0x0
        MOV     C,0xD0 /* PSW */.2
        XRL     A,PSW
        RLC     A
        JNC     $+5
        LJMP    ??GenericApp_ProcessEvent_9 & 0xFFFF
//  170           radio_send_flag=1;
        MOV     DPTR,#radio_send_flag
        MOV     A,#0x1
        MOVX    @DPTR,A
        INC     DPTR
        CLR     A
        MOVX    @DPTR,A
//  171           time_interal=0;
        MOV     DPTR,#time_interal
        MOVX    @DPTR,A
        INC     DPTR
        MOVX    @DPTR,A
        SJMP    ??GenericApp_ProcessEvent_10
//  172         }
//  173       }   
//  174       if(radio_send_flag==1){      
??GenericApp_ProcessEvent_8:
        MOVX    A,@DPTR
        XRL     A,#0x1
        JNZ     ??GenericApp_ProcessEvent_11
        INC     DPTR
        MOVX    A,@DPTR
??GenericApp_ProcessEvent_11:
        JNZ     ??GenericApp_ProcessEvent_9
//  175         HalLedSet(HAL_LED_1,HAL_LED_MODE_ON); 
??GenericApp_ProcessEvent_10:
        ; Setup parameters for call to function HalLedSet
        MOV     R2,#0x1
        MOV     R1,#0x1
        LCALL   ??HalLedSet?relay
//  176         group_index=group_index%group;
        MOV     DPTR,#group_index
        MOVX    A,@DPTR
        MOV     R0,A
        INC     DPTR
        MOVX    A,@DPTR
        MOV     R1,A
        MOV     DPTR,#group
        MOVX    A,@DPTR
        MOV     R2,A
        INC     DPTR
        MOVX    A,@DPTR
        MOV     R3,A
        LCALL   ?S_DIV_MOD
        MOV     DPTR,#group_index
        MOV     A,R2
        MOVX    @DPTR,A
        INC     DPTR
        MOV     A,R3
        LCALL   ?Subroutine4 & 0xFFFF
//  177         send_modbus_data[2]=d_message[group_index].address>>8&0xff;
??CrossCallReturnLabel_2:
        LCALL   ?S_SHL
        MOV     A,#d_message & 0xff
        ADD     A,?V0 + 0
        MOV     R0,A
        MOV     A,#(d_message >> 8) & 0xff
        ADDC    A,?V0 + 1
        MOV     R1,A
        MOV     DPL,R0
        MOV     DPH,R1
        MOVX    A,@DPTR
        MOV     R4,A
        INC     DPTR
        MOVX    A,@DPTR
        MOV     DPTR,#send_modbus_data + 2
        MOVX    @DPTR,A
//  178         send_modbus_data[3]=d_message[group_index].address&0xff;
        MOV     A,R4
        INC     DPTR
        MOVX    @DPTR,A
        MOV     DPL,R0
        MOV     DPH,R1
        INC     DPTR
        INC     DPTR
        MOVX    A,@DPTR
        MOV     R2,A
        INC     DPTR
        MOVX    A,@DPTR
        MOV     DPTR,#send_modbus_data + 4
        MOVX    @DPTR,A
//  179         send_modbus_data[4]=d_message[group_index].len>>8&0xff;
//  180         send_modbus_data[5]=d_message[group_index].len&0xff;   
        MOV     A,R2
        INC     DPTR
        MOVX    @DPTR,A
//  181         uint16 crc=CRC16_Check(send_modbus_data,6);
        ; Setup parameters for call to function CRC16_Check
        MOV     R1,#0x6
        MOV     R2,#send_modbus_data & 0xff
        MOV     R3,#(send_modbus_data >> 8) & 0xff
        LCALL   ??CRC16_Check?relay
//  182         send_modbus_data[6]=crc>>8&0xff;
        MOV     A,R3
        MOV     DPTR,#send_modbus_data + 6
        MOVX    @DPTR,A
//  183         send_modbus_data[7]=crc&0xff;  
        MOV     A,R2
        INC     DPTR
        MOVX    @DPTR,A
//  184         HalUARTWrite(0, send_modbus_data, 8);     
        ; Setup parameters for call to function HalUARTWrite
        MOV     R4,#0x8
        MOV     R5,#0x0
        MOV     R2,#send_modbus_data & 0xff
        MOV     R3,#(send_modbus_data >> 8) & 0xff
        MOV     R1,#0x0
        LCALL   ??HalUARTWrite?relay
//  185       }
//  186       osal_start_timerEx( GenericApp_TaskID,
//  187                           GENERICAPP_SEND_MSG_EVT,
//  188                           GENERICAPP_SEND_MSG_TIMEOUT );   
??GenericApp_ProcessEvent_9:
        ; Setup parameters for call to function osal_start_timerEx
        MOV     R4,#-0x3c
        MOV     R5,#0x9
        MOV     R2,#0x1
        MOV     R3,#0x0
        MOV     DPTR,#GenericApp_TaskID
        MOVX    A,@DPTR
        MOV     R1,A
        LCALL   ??osal_start_timerEx?relay
//  189       return (events ^ GENERICAPP_SEND_MSG_EVT);
        MOV     A,R6
        XRL     A,#0x1
        MOV     R2,A
        MOV     A,R7
        LJMP    ??GenericApp_ProcessEvent_5 & 0xFFFF
//  190     }
//  191     return 0;
??GenericApp_ProcessEvent_7:
        MOV     R2,#0x0
        MOV     R3,#0x0
??GenericApp_ProcessEvent_6:
        MOV     R7,#0x4
        LJMP    ?BANKED_LEAVE_XDATA
        CFI EndBlock cfiBlock6
//  192 }
//  193 
//  194 

        RSEG BANKED_CODE:CODE:NOROOT(0)
//  195 void GenericApp_SendTheMessage(byte *RxBuf,uint8 len)
GenericApp_SendTheMessage:
        CFI Block cfiBlock7 Using cfiCommon0
        CFI Function GenericApp_SendTheMessage
        CODE
//  196 {    
        FUNCALL GenericApp_SendTheMessage, AF_DataRequest
        LOCFRAME ISTACK, 0, STACK
        LOCFRAME PSTACK, 0, STACK
        LOCFRAME XSTACK, 31, STACK
        LOCFRAME IOVERLAY, 0, STATIC
        LOCFRAME DOVERLAY, 0, STATIC
        ARGFRAME ISTACK, 0, STACK
        ARGFRAME PSTACK, 0, STACK
        ARGFRAME XSTACK, 31, STACK
        ARGFRAME IOVERLAY, 0, STATIC
        ARGFRAME DOVERLAY, 0, STATIC
        FUNCALL GenericApp_SendTheMessage, HalLedBlink
        LOCFRAME ISTACK, 0, STACK
        LOCFRAME PSTACK, 0, STACK
        LOCFRAME XSTACK, 22, STACK
        LOCFRAME IOVERLAY, 0, STATIC
        LOCFRAME DOVERLAY, 0, STATIC
        ARGFRAME ISTACK, 0, STACK
        ARGFRAME PSTACK, 0, STACK
        ARGFRAME XSTACK, 22, STACK
        ARGFRAME IOVERLAY, 0, STATIC
        ARGFRAME DOVERLAY, 0, STATIC
        MOV     A,#-0xa
        LCALL   ?BANKED_ENTER_XDATA
        CFI DPH0 load(1, XDATA, add(CFA_XSP16, literal(-1)))
        CFI DPL0 load(1, XDATA, add(CFA_XSP16, literal(-2)))
        CFI ?BRET_EXT load(1, XDATA, add(CFA_XSP16, literal(-3)))
        CFI ?RET_HIGH load(1, XDATA, add(CFA_XSP16, literal(-4)))
        CFI ?RET_LOW load(1, XDATA, add(CFA_XSP16, literal(-5)))
        CFI R7 load(1, XDATA, add(CFA_XSP16, literal(-6)))
        CFI V1 load(1, XDATA, add(CFA_XSP16, literal(-7)))
        CFI V0 load(1, XDATA, add(CFA_XSP16, literal(-8)))
        CFI VB load(1, XDATA, add(CFA_XSP16, literal(-9)))
        CFI R6 load(1, XDATA, add(CFA_XSP16, literal(-10)))
        CFI CFA_SP SP+0
        CFI CFA_XSP16 add(XSP16, 10)
        ; Saved register size: 10
        ; Auto size: 12
        MOV     A,#-0xc
        LCALL   ?ALLOC_XSTACK8
        CFI CFA_XSP16 add(XSP16, 22)
        MOV     A,R1
        MOV     R6,A
//  197     afAddrType_t devDstAddr;
//  198     devDstAddr.addrMode=(afAddrMode_t)Addr16Bit;
        MOV     A,#0x8
        LCALL   ?XSTACK_DISP0_8
        MOV     A,#0x2
        MOVX    @DPTR,A
//  199     devDstAddr.endPoint=GENERICAPP_ENDPOINT;
        MOV     A,#0x9
        LCALL   ?XSTACK_DISP0_8
        MOV     A,#0xa
        MOVX    @DPTR,A
//  200     devDstAddr.addr.shortAddr=0x0000; 
        MOV     DPL,?XSP + 0
        MOV     DPH,?XSP + 1
        CLR     A
        MOVX    @DPTR,A
        INC     DPTR
        MOVX    @DPTR,A
//  201     
//  202     AF_DataRequest(&devDstAddr,
//  203         &GenericApp_epDesc,
//  204         GENERICAPP_CLUSTERID,
//  205         len,//send len
//  206         RxBuf,//send buf
//  207         &GenericApp_TransID,
//  208         AF_DISCV_ROUTE,
//  209         AF_DEFAULT_RADIUS);
        ; Setup parameters for call to function AF_DataRequest
        MOV     ?V0 + 0,#0x1e
        MOV     R0,#?V0 + 0
        LCALL   ?PUSH_XSTACK_I_ONE
        CFI CFA_XSP16 add(XSP16, 23)
        MOV     ?V0 + 0,#GenericApp_TransID & 0xff
        MOV     ?V0 + 1,#(GenericApp_TransID >> 8) & 0xff
        MOV     R0,#?V0 + 0
        LCALL   ?PUSH_XSTACK_I_TWO
        CFI CFA_XSP16 add(XSP16, 25)
        MOV     ?V0 + 0,R2
        MOV     ?V0 + 1,R3
        MOV     R0,#?V0 + 0
        LCALL   ?PUSH_XSTACK_I_TWO
        CFI CFA_XSP16 add(XSP16, 27)
        MOV     ?V0 + 0,R6
        MOV     ?V0 + 1,#0x0
        MOV     R0,#?V0 + 0
        LCALL   ?PUSH_XSTACK_I_TWO
        CFI CFA_XSP16 add(XSP16, 29)
        MOV     ?V0 + 0,#0x1
        MOV     R0,#?V0 + 0
        LCALL   ?PUSH_XSTACK_I_TWO
        CFI CFA_XSP16 add(XSP16, 31)
        MOV     R1,#0x20
        MOV     R4,#GenericApp_epDesc & 0xff
        MOV     R5,#(GenericApp_epDesc >> 8) & 0xff
        MOV     A,#0x9
        LCALL   ?XSTACK_DISP0_8
        MOV     R2,DPL
        MOV     R3,DPH
        LCALL   ??AF_DataRequest?relay
        MOV     A,#0x9
        LCALL   ?DEALLOC_XSTACK8
        CFI CFA_XSP16 add(XSP16, 22)
//  210     HalLedBlink(HAL_LED_2, 1, 50, 500);
        ; Setup parameters for call to function HalLedBlink
        MOV     R4,#-0xc
        MOV     R5,#0x1
        MOV     R3,#0x32
        MOV     R2,#0x1
        MOV     R1,#0x2
        LCALL   ??HalLedBlink?relay
//  211 }
        MOV     A,#0xc
        LCALL   ?DEALLOC_XSTACK8
        CFI EndBlock cfiBlock7
        REQUIRE ?Subroutine1
        ; // Fall through to label ?Subroutine1

        RSEG BANKED_CODE:CODE:NOROOT(0)
?Subroutine1:
        CFI Block cfiBlock8 Using cfiCommon0
        CFI NoFunction
        CFI CFA_SP SP+0
        CFI CFA_XSP16 add(XSP16, 10)
        CFI VB load(1, XDATA, add(CFA_XSP16, literal(-9)))
        CFI DPL0 load(1, XDATA, add(CFA_XSP16, literal(-2)))
        CFI DPH0 load(1, XDATA, add(CFA_XSP16, literal(-1)))
        CFI R6 load(1, XDATA, add(CFA_XSP16, literal(-10)))
        CFI R7 load(1, XDATA, add(CFA_XSP16, literal(-6)))
        CFI V0 load(1, XDATA, add(CFA_XSP16, literal(-8)))
        CFI V1 load(1, XDATA, add(CFA_XSP16, literal(-7)))
        CFI ?BRET_EXT load(1, XDATA, add(CFA_XSP16, literal(-3)))
        CFI ?RET_HIGH load(1, XDATA, add(CFA_XSP16, literal(-4)))
        CFI ?RET_LOW load(1, XDATA, add(CFA_XSP16, literal(-5)))
        MOV     R7,#0x2
        LJMP    ?BANKED_LEAVE_XDATA
        CFI EndBlock cfiBlock8
//  212 

        RSEG BANKED_CODE:CODE:NOROOT(0)
//  213 static void rxCB(uint8 port,uint8 event)
rxCB:
        CFI Block cfiBlock9 Using cfiCommon0
        CFI Function rxCB
        CODE
//  214 {
        FUNCALL rxCB, HalUARTRead
        LOCFRAME ISTACK, 0, STACK
        LOCFRAME PSTACK, 0, STACK
        LOCFRAME XSTACK, 11, STACK
        LOCFRAME IOVERLAY, 0, STATIC
        LOCFRAME DOVERLAY, 0, STATIC
        ARGFRAME ISTACK, 0, STACK
        ARGFRAME PSTACK, 0, STACK
        ARGFRAME XSTACK, 11, STACK
        ARGFRAME IOVERLAY, 0, STATIC
        ARGFRAME DOVERLAY, 0, STATIC
        FUNCALL rxCB, CRC16_Check
        LOCFRAME ISTACK, 0, STACK
        LOCFRAME PSTACK, 0, STACK
        LOCFRAME XSTACK, 11, STACK
        LOCFRAME IOVERLAY, 0, STATIC
        LOCFRAME DOVERLAY, 0, STATIC
        ARGFRAME ISTACK, 0, STACK
        ARGFRAME PSTACK, 0, STACK
        ARGFRAME XSTACK, 11, STACK
        ARGFRAME IOVERLAY, 0, STATIC
        ARGFRAME DOVERLAY, 0, STATIC
        FUNCALL rxCB, osal_memcpy
        LOCFRAME ISTACK, 0, STACK
        LOCFRAME PSTACK, 0, STACK
        LOCFRAME XSTACK, 14, STACK
        LOCFRAME IOVERLAY, 0, STATIC
        LOCFRAME DOVERLAY, 0, STATIC
        ARGFRAME ISTACK, 0, STACK
        ARGFRAME PSTACK, 0, STACK
        ARGFRAME XSTACK, 14, STACK
        ARGFRAME IOVERLAY, 0, STATIC
        ARGFRAME DOVERLAY, 0, STATIC
        FUNCALL rxCB, GenericApp_SendTheMessage
        LOCFRAME ISTACK, 0, STACK
        LOCFRAME PSTACK, 0, STACK
        LOCFRAME XSTACK, 11, STACK
        LOCFRAME IOVERLAY, 0, STATIC
        LOCFRAME DOVERLAY, 0, STATIC
        ARGFRAME ISTACK, 0, STACK
        ARGFRAME PSTACK, 0, STACK
        ARGFRAME XSTACK, 11, STACK
        ARGFRAME IOVERLAY, 0, STATIC
        ARGFRAME DOVERLAY, 0, STATIC
        FUNCALL rxCB, HalLedSet
        LOCFRAME ISTACK, 0, STACK
        LOCFRAME PSTACK, 0, STACK
        LOCFRAME XSTACK, 11, STACK
        LOCFRAME IOVERLAY, 0, STATIC
        LOCFRAME DOVERLAY, 0, STATIC
        ARGFRAME ISTACK, 0, STACK
        ARGFRAME PSTACK, 0, STACK
        ARGFRAME XSTACK, 11, STACK
        ARGFRAME IOVERLAY, 0, STATIC
        ARGFRAME DOVERLAY, 0, STATIC
        MOV     A,#-0xb
        LCALL   ?BANKED_ENTER_XDATA
        CFI DPH0 load(1, XDATA, add(CFA_XSP16, literal(-1)))
        CFI DPL0 load(1, XDATA, add(CFA_XSP16, literal(-2)))
        CFI ?BRET_EXT load(1, XDATA, add(CFA_XSP16, literal(-3)))
        CFI ?RET_HIGH load(1, XDATA, add(CFA_XSP16, literal(-4)))
        CFI ?RET_LOW load(1, XDATA, add(CFA_XSP16, literal(-5)))
        CFI R7 load(1, XDATA, add(CFA_XSP16, literal(-6)))
        CFI V2 load(1, XDATA, add(CFA_XSP16, literal(-7)))
        CFI V1 load(1, XDATA, add(CFA_XSP16, literal(-8)))
        CFI V0 load(1, XDATA, add(CFA_XSP16, literal(-9)))
        CFI VB load(1, XDATA, add(CFA_XSP16, literal(-10)))
        CFI R6 load(1, XDATA, add(CFA_XSP16, literal(-11)))
        CFI CFA_SP SP+0
        CFI CFA_XSP16 add(XSP16, 11)
        ; Saved register size: 11
        ; Auto size: 0
        MOV     A,R2
        MOV     R6,A
//  215   //static uint8 uart_len;
//  216   uint8 i;
//  217   //uint16 addr;
//  218   if ((event & (HAL_UART_RX_FULL | HAL_UART_RX_ABOUT_FULL | HAL_UART_RX_TIMEOUT)) &&
//  219 #if SERIAL_APP_LOOPBACK
//  220       (SerialApp_TxLen < SERIAL_APP_TX_MAX))
//  221 #else
//  222       !SerialApp_TxLen)
        MOV     A,#0x7
        ANL     A,R6
        JNZ     $+5
        LJMP    ??rxCB_0 & 0xFFFF
        MOV     DPTR,#SerialApp_TxLen
        MOVX    A,@DPTR
        JZ      $+5
        LJMP    ??rxCB_0 & 0xFFFF
//  223 #endif
//  224   {
//  225     SerialApp_TxLen = HalUARTRead(0, Uart_RxBuf, SERIAL_APP_TX_MAX);
        ; Setup parameters for call to function HalUARTRead
        MOV     R4,#0x40
        MOV     R5,#0x0
        MOV     R2,#Uart_RxBuf & 0xff
        MOV     R3,#(Uart_RxBuf >> 8) & 0xff
        MOV     R1,#0x0
        LCALL   ??HalUARTRead?relay
        MOV     A,R2
        MOV     DPTR,#SerialApp_TxLen
        MOVX    @DPTR,A
//  226     if (SerialApp_TxLen)
        JNZ     $+5
        LJMP    ??rxCB_0 & 0xFFFF
//  227     {
//  228       for(i=0;i<SerialApp_TxLen;i++)
        MOV     ?V0 + 2,#0x0
//  229       {
//  230         if(Uart_RxBuf[i]==Modbus_Addr&&Uart_RxBuf[i+1]==0x03)
??rxCB_1:
        MOV     ?V0 + 0,?V0 + 2
        MOV     A,#Uart_RxBuf & 0xff
        ADD     A,?V0 + 0
        MOV     DPL,A
        MOV     A,#(Uart_RxBuf >> 8) & 0xff
        LCALL   ?Subroutine6 & 0xFFFF
??CrossCallReturnLabel_6:
        XRL     A,#0x1
        JZ      $+5
        LJMP    ??rxCB_2 & 0xFFFF
        MOV     A,#(Uart_RxBuf + 1) & 0xff
        ADD     A,?V0 + 0
        MOV     DPL,A
        MOV     A,#((Uart_RxBuf + 1) >> 8) & 0xff
        LCALL   ?Subroutine6 & 0xFFFF
??CrossCallReturnLabel_7:
        XRL     A,#0x3
        JZ      $+5
        LJMP    ??rxCB_2 & 0xFFFF
//  231         {
//  232           uint8 data_len=Uart_RxBuf[i+2];
        MOV     A,#Uart_RxBuf & 0xff
        ADD     A,?V0 + 0
        MOV     R2,A
        MOV     A,#(Uart_RxBuf >> 8) & 0xff
        ADDC    A,#0x0
        MOV     R3,A
        MOV     DPL,R2
        MOV     DPH,R3
        INC     DPTR
        INC     DPTR
        MOVX    A,@DPTR
        MOV     R7,A
//  233           uint16 crc=CRC16_Check(Uart_RxBuf+i,data_len+3);
        ; Setup parameters for call to function CRC16_Check
        MOV     A,#0x3
        ADD     A,R7
        MOV     R1,A
        LCALL   ??CRC16_Check?relay
        MOV     ?V0 + 1,R3
//  234           uint8 crc_high=crc>>8&0xff;
//  235           uint8 crc_low=crc&0xff;   
//  236           if(crc_high==Uart_RxBuf[data_len+3]&&crc_low==Uart_RxBuf[data_len+4])//确保从modbus_485接收到的数据没有错.
        MOV     R0,?V0 + 1
        MOV     ?V0 + 0,R7
        MOV     A,#(Uart_RxBuf + 3) & 0xff
        ADD     A,?V0 + 0
        MOV     DPL,A
        MOV     A,#((Uart_RxBuf + 3) >> 8) & 0xff
        LCALL   ?Subroutine6 & 0xFFFF
??CrossCallReturnLabel_8:
        XRL     A,R0
        JNZ     ??rxCB_2
        MOV     A,#(Uart_RxBuf + 4) & 0xff
        ADD     A,?V0 + 0
        MOV     DPL,A
        MOV     A,#((Uart_RxBuf + 4) >> 8) & 0xff
        LCALL   ?Subroutine6 & 0xFFFF
??CrossCallReturnLabel_9:
        XRL     A,R2
        JNZ     ??rxCB_2
//  237           {
//  238             RadioApp_TxLen=RadioHead_TxLen;
        MOV     DPTR,#RadioHead_TxLen
        MOVX    A,@DPTR
        MOV     DPTR,#RadioApp_TxLen
        LCALL   ?Subroutine4 & 0xFFFF
//  239             //RadioBuf[RadioApp_TxLen++]=group_index; //2016/3/1 modified by yaobin
//  240             //addr=START_ADDR+group_index*REGISTER_NUM;
//  241             //RadioBuf[RadioApp_TxLen++]=addr>>8&0xff;
//  242             RadioBuf[RadioApp_TxLen++]=d_message[group_index].address&0xff;
??CrossCallReturnLabel_3:
        LCALL   ?S_SHL
        MOV     A,#d_message & 0xff
        ADD     A,?V0 + 0
        MOV     DPL,A
        MOV     A,#(d_message >> 8) & 0xff
        ADDC    A,?V0 + 1
        MOV     DPH,A
        MOVX    A,@DPTR
        PUSH    A
        CFI CFA_SP SP+-1
        MOV     DPTR,#RadioApp_TxLen
        LCALL   ?Subroutine2 & 0xFFFF
??CrossCallReturnLabel_16:
        POP     A
        CFI CFA_SP SP+0
        MOVX    @DPTR,A
        MOV     DPTR,#RadioApp_TxLen
        MOVX    A,@DPTR
        INC     A
        MOVX    @DPTR,A
//  243             osal_memcpy(RadioBuf+RadioApp_TxLen,Uart_RxBuf,data_len+3);
        ; Setup parameters for call to function osal_memcpy
        MOV     ?V0 + 0,#Uart_RxBuf & 0xff
        MOV     ?V0 + 1,#(Uart_RxBuf >> 8) & 0xff
        MOV     ?V0 + 2,#0x0
        MOV     R0,#?V0 + 0
        LCALL   ?PUSH_XSTACK_I_THREE
        CFI CFA_XSP16 add(XSP16, 14)
        MOV     A,R7
        ADD     A,#0x3
        MOV     R4,A
        CLR     A
        ADDC    A,#0x0
        MOV     R5,A
        MOV     DPTR,#RadioApp_TxLen
        LCALL   ?Subroutine3 & 0xFFFF
??CrossCallReturnLabel_1:
        LCALL   ?DEALLOC_XSTACK8
        CFI CFA_XSP16 add(XSP16, 11)
//  244             RadioApp_TxLen+=data_len+3;
        MOV     A,#0x3
        ADD     A,R7
        MOV     R0,A
        MOV     DPTR,#RadioApp_TxLen
        MOVX    A,@DPTR
        ADD     A,R0
        MOVX    @DPTR,A
//  245 //#ifdef HIGH_THROUGHPUT
//  246             GenericApp_SendTheMessage(RadioBuf,RadioApp_TxLen);//发送数据到协调器
        ; Setup parameters for call to function GenericApp_SendTheMessage
        MOV     R1,A
        MOV     R2,#RadioBuf & 0xff
        MOV     R3,#(RadioBuf >> 8) & 0xff
        LCALL   ??GenericApp_SendTheMessage?relay
//  247 //#elif LOW_THROUGHPUT
//  248 //            if(radio_send_flag)GenericApp_SendTheMessage(RadioBuf,RadioApp_TxLen);//发送数据到协调器
//  249 //#endif   
//  250             group_index++;
        MOV     DPTR,#group_index
        LCALL   ?Subroutine5 & 0xFFFF
//  251             break;
??CrossCallReturnLabel_5:
        SJMP    ??rxCB_3
//  252           }
//  253         }
//  254       } 
??rxCB_2:
        INC     ?V0 + 2
        MOV     DPTR,#SerialApp_TxLen
        MOVX    A,@DPTR
        MOV     R0,A
        MOV     A,?V0 + 2
        CLR     C
        SUBB    A,R0
        JNC     $+5
        LJMP    ??rxCB_1 & 0xFFFF
//  255       HalLedSet(HAL_LED_1,HAL_LED_MODE_OFF);
??rxCB_3:
        ; Setup parameters for call to function HalLedSet
        MOV     R2,#0x0
        MOV     R1,#0x1
        LCALL   ??HalLedSet?relay
//  256       SerialApp_TxLen=0;
        MOV     DPTR,#SerialApp_TxLen
        CLR     A
        MOVX    @DPTR,A
//  257     }
//  258   }
//  259 }
??rxCB_0:
        LJMP    ?Subroutine0 & 0xFFFF
        CFI EndBlock cfiBlock9

        RSEG BANKED_CODE:CODE:NOROOT(0)
?Subroutine6:
        CFI Block cfiCond10 Using cfiCommon0
        CFI NoFunction
        CFI Conditional ??CrossCallReturnLabel_6
        CFI R6 load(1, XDATA, add(CFA_XSP16, literal(-11)))
        CFI VB load(1, XDATA, add(CFA_XSP16, literal(-10)))
        CFI V0 load(1, XDATA, add(CFA_XSP16, literal(-9)))
        CFI V1 load(1, XDATA, add(CFA_XSP16, literal(-8)))
        CFI V2 load(1, XDATA, add(CFA_XSP16, literal(-7)))
        CFI R7 load(1, XDATA, add(CFA_XSP16, literal(-6)))
        CFI ?RET_LOW load(1, XDATA, add(CFA_XSP16, literal(-5)))
        CFI ?RET_HIGH load(1, XDATA, add(CFA_XSP16, literal(-4)))
        CFI ?BRET_EXT load(1, XDATA, add(CFA_XSP16, literal(-3)))
        CFI DPL0 load(1, XDATA, add(CFA_XSP16, literal(-2)))
        CFI DPH0 load(1, XDATA, add(CFA_XSP16, literal(-1)))
        CFI CFA_SP SP+0
        CFI CFA_XSP16 add(XSP16, 11)
        CFI Block cfiCond11 Using cfiCommon0
        CFI (cfiCond11) NoFunction
        CFI (cfiCond11) Conditional ??CrossCallReturnLabel_7
        CFI (cfiCond11) R6 load(1, XDATA, add(CFA_XSP16, literal(-11)))
        CFI (cfiCond11) VB load(1, XDATA, add(CFA_XSP16, literal(-10)))
        CFI (cfiCond11) V0 load(1, XDATA, add(CFA_XSP16, literal(-9)))
        CFI (cfiCond11) V1 load(1, XDATA, add(CFA_XSP16, literal(-8)))
        CFI (cfiCond11) V2 load(1, XDATA, add(CFA_XSP16, literal(-7)))
        CFI (cfiCond11) R7 load(1, XDATA, add(CFA_XSP16, literal(-6)))
        CFI (cfiCond11) ?RET_LOW load(1, XDATA, add(CFA_XSP16, literal(-5)))
        CFI (cfiCond11) ?RET_HIGH load(1, XDATA, add(CFA_XSP16, literal(-4)))
        CFI (cfiCond11) ?BRET_EXT load(1, XDATA, add(CFA_XSP16, literal(-3)))
        CFI (cfiCond11) DPL0 load(1, XDATA, add(CFA_XSP16, literal(-2)))
        CFI (cfiCond11) DPH0 load(1, XDATA, add(CFA_XSP16, literal(-1)))
        CFI (cfiCond11) CFA_SP SP+0
        CFI (cfiCond11) CFA_XSP16 add(XSP16, 11)
        CFI Block cfiCond12 Using cfiCommon0
        CFI (cfiCond12) NoFunction
        CFI (cfiCond12) Conditional ??CrossCallReturnLabel_8
        CFI (cfiCond12) R6 load(1, XDATA, add(CFA_XSP16, literal(-11)))
        CFI (cfiCond12) VB load(1, XDATA, add(CFA_XSP16, literal(-10)))
        CFI (cfiCond12) V0 load(1, XDATA, add(CFA_XSP16, literal(-9)))
        CFI (cfiCond12) V1 load(1, XDATA, add(CFA_XSP16, literal(-8)))
        CFI (cfiCond12) V2 load(1, XDATA, add(CFA_XSP16, literal(-7)))
        CFI (cfiCond12) R7 load(1, XDATA, add(CFA_XSP16, literal(-6)))
        CFI (cfiCond12) ?RET_LOW load(1, XDATA, add(CFA_XSP16, literal(-5)))
        CFI (cfiCond12) ?RET_HIGH load(1, XDATA, add(CFA_XSP16, literal(-4)))
        CFI (cfiCond12) ?BRET_EXT load(1, XDATA, add(CFA_XSP16, literal(-3)))
        CFI (cfiCond12) DPL0 load(1, XDATA, add(CFA_XSP16, literal(-2)))
        CFI (cfiCond12) DPH0 load(1, XDATA, add(CFA_XSP16, literal(-1)))
        CFI (cfiCond12) CFA_SP SP+0
        CFI (cfiCond12) CFA_XSP16 add(XSP16, 11)
        CFI Block cfiCond13 Using cfiCommon0
        CFI (cfiCond13) NoFunction
        CFI (cfiCond13) Conditional ??CrossCallReturnLabel_9
        CFI (cfiCond13) R6 load(1, XDATA, add(CFA_XSP16, literal(-11)))
        CFI (cfiCond13) VB load(1, XDATA, add(CFA_XSP16, literal(-10)))
        CFI (cfiCond13) V0 load(1, XDATA, add(CFA_XSP16, literal(-9)))
        CFI (cfiCond13) V1 load(1, XDATA, add(CFA_XSP16, literal(-8)))
        CFI (cfiCond13) V2 load(1, XDATA, add(CFA_XSP16, literal(-7)))
        CFI (cfiCond13) R7 load(1, XDATA, add(CFA_XSP16, literal(-6)))
        CFI (cfiCond13) ?RET_LOW load(1, XDATA, add(CFA_XSP16, literal(-5)))
        CFI (cfiCond13) ?RET_HIGH load(1, XDATA, add(CFA_XSP16, literal(-4)))
        CFI (cfiCond13) ?BRET_EXT load(1, XDATA, add(CFA_XSP16, literal(-3)))
        CFI (cfiCond13) DPL0 load(1, XDATA, add(CFA_XSP16, literal(-2)))
        CFI (cfiCond13) DPH0 load(1, XDATA, add(CFA_XSP16, literal(-1)))
        CFI (cfiCond13) CFA_SP SP+0
        CFI (cfiCond13) CFA_XSP16 add(XSP16, 11)
        CFI Block cfiPicker14 Using cfiCommon1
        CFI (cfiPicker14) NoFunction
        CFI (cfiPicker14) Picker
        ADDC    A,#0x0
        MOV     DPH,A
        MOVX    A,@DPTR
        RET
        CFI EndBlock cfiCond10
        CFI EndBlock cfiCond11
        CFI EndBlock cfiCond12
        CFI EndBlock cfiCond13
        CFI EndBlock cfiPicker14

        RSEG BANKED_CODE:CODE:NOROOT(0)
?Subroutine5:
        CFI Block cfiCond15 Using cfiCommon0
        CFI NoFunction
        CFI Conditional ??CrossCallReturnLabel_4
        CFI R6 load(1, XDATA, add(CFA_XSP16, literal(-12)))
        CFI VB load(1, XDATA, add(CFA_XSP16, literal(-11)))
        CFI V0 load(1, XDATA, add(CFA_XSP16, literal(-10)))
        CFI V1 load(1, XDATA, add(CFA_XSP16, literal(-9)))
        CFI V2 load(1, XDATA, add(CFA_XSP16, literal(-8)))
        CFI V3 load(1, XDATA, add(CFA_XSP16, literal(-7)))
        CFI R7 load(1, XDATA, add(CFA_XSP16, literal(-6)))
        CFI ?RET_LOW load(1, XDATA, add(CFA_XSP16, literal(-5)))
        CFI ?RET_HIGH load(1, XDATA, add(CFA_XSP16, literal(-4)))
        CFI ?BRET_EXT load(1, XDATA, add(CFA_XSP16, literal(-3)))
        CFI DPL0 load(1, XDATA, add(CFA_XSP16, literal(-2)))
        CFI DPH0 load(1, XDATA, add(CFA_XSP16, literal(-1)))
        CFI CFA_SP SP+0
        CFI CFA_XSP16 add(XSP16, 12)
        CFI Block cfiCond16 Using cfiCommon0
        CFI (cfiCond16) NoFunction
        CFI (cfiCond16) Conditional ??CrossCallReturnLabel_5
        CFI (cfiCond16) R6 load(1, XDATA, add(CFA_XSP16, literal(-11)))
        CFI (cfiCond16) VB load(1, XDATA, add(CFA_XSP16, literal(-10)))
        CFI (cfiCond16) V0 load(1, XDATA, add(CFA_XSP16, literal(-9)))
        CFI (cfiCond16) V1 load(1, XDATA, add(CFA_XSP16, literal(-8)))
        CFI (cfiCond16) V2 load(1, XDATA, add(CFA_XSP16, literal(-7)))
        CFI (cfiCond16) R7 load(1, XDATA, add(CFA_XSP16, literal(-6)))
        CFI (cfiCond16) ?RET_LOW load(1, XDATA, add(CFA_XSP16, literal(-5)))
        CFI (cfiCond16) ?RET_HIGH load(1, XDATA, add(CFA_XSP16, literal(-4)))
        CFI (cfiCond16) ?BRET_EXT load(1, XDATA, add(CFA_XSP16, literal(-3)))
        CFI (cfiCond16) DPL0 load(1, XDATA, add(CFA_XSP16, literal(-2)))
        CFI (cfiCond16) DPH0 load(1, XDATA, add(CFA_XSP16, literal(-1)))
        CFI (cfiCond16) CFA_SP SP+0
        CFI (cfiCond16) CFA_XSP16 add(XSP16, 11)
        CFI Block cfiPicker17 Using cfiCommon1
        CFI (cfiPicker17) NoFunction
        CFI (cfiPicker17) Picker
        MOVX    A,@DPTR
        ADD     A,#0x1
        MOVX    @DPTR,A
        INC     DPTR
        MOVX    A,@DPTR
        ADDC    A,#0x0
        MOVX    @DPTR,A
        RET
        CFI EndBlock cfiCond15
        CFI EndBlock cfiCond16
        CFI EndBlock cfiPicker17

        RSEG BANKED_CODE:CODE:NOROOT(0)
?Subroutine4:
        CFI Block cfiCond18 Using cfiCommon0
        CFI NoFunction
        CFI Conditional ??CrossCallReturnLabel_2
        CFI R6 load(1, XDATA, add(CFA_XSP16, literal(-12)))
        CFI VB load(1, XDATA, add(CFA_XSP16, literal(-11)))
        CFI V0 load(1, XDATA, add(CFA_XSP16, literal(-10)))
        CFI V1 load(1, XDATA, add(CFA_XSP16, literal(-9)))
        CFI V2 load(1, XDATA, add(CFA_XSP16, literal(-8)))
        CFI V3 load(1, XDATA, add(CFA_XSP16, literal(-7)))
        CFI R7 load(1, XDATA, add(CFA_XSP16, literal(-6)))
        CFI ?RET_LOW load(1, XDATA, add(CFA_XSP16, literal(-5)))
        CFI ?RET_HIGH load(1, XDATA, add(CFA_XSP16, literal(-4)))
        CFI ?BRET_EXT load(1, XDATA, add(CFA_XSP16, literal(-3)))
        CFI DPL0 load(1, XDATA, add(CFA_XSP16, literal(-2)))
        CFI DPH0 load(1, XDATA, add(CFA_XSP16, literal(-1)))
        CFI CFA_SP SP+0
        CFI CFA_XSP16 add(XSP16, 12)
        CFI Block cfiCond19 Using cfiCommon0
        CFI (cfiCond19) NoFunction
        CFI (cfiCond19) Conditional ??CrossCallReturnLabel_3
        CFI (cfiCond19) R6 load(1, XDATA, add(CFA_XSP16, literal(-11)))
        CFI (cfiCond19) VB load(1, XDATA, add(CFA_XSP16, literal(-10)))
        CFI (cfiCond19) V0 load(1, XDATA, add(CFA_XSP16, literal(-9)))
        CFI (cfiCond19) V1 load(1, XDATA, add(CFA_XSP16, literal(-8)))
        CFI (cfiCond19) V2 load(1, XDATA, add(CFA_XSP16, literal(-7)))
        CFI (cfiCond19) R7 load(1, XDATA, add(CFA_XSP16, literal(-6)))
        CFI (cfiCond19) ?RET_LOW load(1, XDATA, add(CFA_XSP16, literal(-5)))
        CFI (cfiCond19) ?RET_HIGH load(1, XDATA, add(CFA_XSP16, literal(-4)))
        CFI (cfiCond19) ?BRET_EXT load(1, XDATA, add(CFA_XSP16, literal(-3)))
        CFI (cfiCond19) DPL0 load(1, XDATA, add(CFA_XSP16, literal(-2)))
        CFI (cfiCond19) DPH0 load(1, XDATA, add(CFA_XSP16, literal(-1)))
        CFI (cfiCond19) CFA_SP SP+0
        CFI (cfiCond19) CFA_XSP16 add(XSP16, 11)
        CFI Block cfiPicker20 Using cfiCommon1
        CFI (cfiPicker20) NoFunction
        CFI (cfiPicker20) Picker
        MOVX    @DPTR,A
        MOV     DPTR,#group_index
        MOVX    A,@DPTR
        MOV     ?V0 + 0,A
        INC     DPTR
        MOVX    A,@DPTR
        MOV     ?V0 + 1,A
        MOV     A,#0x2
        MOV     R0,#?V0 + 0
        RET
        CFI EndBlock cfiCond18
        CFI EndBlock cfiCond19
        CFI EndBlock cfiPicker20

        RSEG BANKED_CODE:CODE:NOROOT(0)
?Subroutine3:
        CFI Block cfiCond21 Using cfiCommon0
        CFI NoFunction
        CFI Conditional ??CrossCallReturnLabel_0
        CFI R6 load(1, XDATA, add(CFA_XSP16, literal(-11)))
        CFI VB load(1, XDATA, add(CFA_XSP16, literal(-10)))
        CFI V0 load(1, XDATA, add(CFA_XSP16, literal(-9)))
        CFI V1 load(1, XDATA, add(CFA_XSP16, literal(-8)))
        CFI V2 load(1, XDATA, add(CFA_XSP16, literal(-7)))
        CFI R7 load(1, XDATA, add(CFA_XSP16, literal(-6)))
        CFI ?RET_LOW load(1, XDATA, add(CFA_XSP16, literal(-5)))
        CFI ?RET_HIGH load(1, XDATA, add(CFA_XSP16, literal(-4)))
        CFI ?BRET_EXT load(1, XDATA, add(CFA_XSP16, literal(-3)))
        CFI DPL0 load(1, XDATA, add(CFA_XSP16, literal(-2)))
        CFI DPH0 load(1, XDATA, add(CFA_XSP16, literal(-1)))
        CFI CFA_SP SP+0
        CFI CFA_XSP16 add(XSP16, 43)
        CFI Block cfiCond22 Using cfiCommon0
        CFI (cfiCond22) NoFunction
        CFI (cfiCond22) Conditional ??CrossCallReturnLabel_1
        CFI (cfiCond22) R6 load(1, XDATA, add(CFA_XSP16, literal(-11)))
        CFI (cfiCond22) VB load(1, XDATA, add(CFA_XSP16, literal(-10)))
        CFI (cfiCond22) V0 load(1, XDATA, add(CFA_XSP16, literal(-9)))
        CFI (cfiCond22) V1 load(1, XDATA, add(CFA_XSP16, literal(-8)))
        CFI (cfiCond22) V2 load(1, XDATA, add(CFA_XSP16, literal(-7)))
        CFI (cfiCond22) R7 load(1, XDATA, add(CFA_XSP16, literal(-6)))
        CFI (cfiCond22) ?RET_LOW load(1, XDATA, add(CFA_XSP16, literal(-5)))
        CFI (cfiCond22) ?RET_HIGH load(1, XDATA, add(CFA_XSP16, literal(-4)))
        CFI (cfiCond22) ?BRET_EXT load(1, XDATA, add(CFA_XSP16, literal(-3)))
        CFI (cfiCond22) DPL0 load(1, XDATA, add(CFA_XSP16, literal(-2)))
        CFI (cfiCond22) DPH0 load(1, XDATA, add(CFA_XSP16, literal(-1)))
        CFI (cfiCond22) CFA_SP SP+0
        CFI (cfiCond22) CFA_XSP16 add(XSP16, 14)
        CFI Block cfiPicker23 Using cfiCommon1
        CFI (cfiPicker23) NoFunction
        CFI (cfiPicker23) Picker
        MOVX    A,@DPTR
        MOV     R0,A
        MOV     A,#RadioBuf & 0xff
        ADD     A,R0
        MOV     R2,A
        MOV     A,#(RadioBuf >> 8) & 0xff
        ADDC    A,#0x0
        MOV     R3,A
        LCALL   ??osal_memcpy?relay
        MOV     A,#0x3
        RET
        CFI EndBlock cfiCond21
        CFI EndBlock cfiCond22
        CFI EndBlock cfiPicker23

        RSEG BANKED_CODE:CODE:NOROOT(0)
?Subroutine2:
        CFI Block cfiCond24 Using cfiCommon0
        CFI NoFunction
        CFI Conditional ??CrossCallReturnLabel_15
        CFI R6 load(1, XDATA, add(CFA_XSP16, literal(-11)))
        CFI VB load(1, XDATA, add(CFA_XSP16, literal(-10)))
        CFI V0 load(1, XDATA, add(CFA_XSP16, literal(-9)))
        CFI V1 load(1, XDATA, add(CFA_XSP16, literal(-8)))
        CFI V2 load(1, XDATA, add(CFA_XSP16, literal(-7)))
        CFI R7 load(1, XDATA, add(CFA_XSP16, literal(-6)))
        CFI ?RET_LOW load(1, XDATA, add(CFA_XSP16, literal(-5)))
        CFI ?RET_HIGH load(1, XDATA, add(CFA_XSP16, literal(-4)))
        CFI ?BRET_EXT load(1, XDATA, add(CFA_XSP16, literal(-3)))
        CFI DPL0 load(1, XDATA, add(CFA_XSP16, literal(-2)))
        CFI DPH0 load(1, XDATA, add(CFA_XSP16, literal(-1)))
        CFI CFA_SP SP+0
        CFI CFA_XSP16 add(XSP16, 40)
        CFI Block cfiCond25 Using cfiCommon0
        CFI (cfiCond25) NoFunction
        CFI (cfiCond25) Conditional ??CrossCallReturnLabel_16
        CFI (cfiCond25) R6 load(1, XDATA, add(CFA_XSP16, literal(-11)))
        CFI (cfiCond25) VB load(1, XDATA, add(CFA_XSP16, literal(-10)))
        CFI (cfiCond25) V0 load(1, XDATA, add(CFA_XSP16, literal(-9)))
        CFI (cfiCond25) V1 load(1, XDATA, add(CFA_XSP16, literal(-8)))
        CFI (cfiCond25) V2 load(1, XDATA, add(CFA_XSP16, literal(-7)))
        CFI (cfiCond25) R7 load(1, XDATA, add(CFA_XSP16, literal(-6)))
        CFI (cfiCond25) ?RET_LOW load(1, XDATA, add(CFA_XSP16, literal(-5)))
        CFI (cfiCond25) ?RET_HIGH load(1, XDATA, add(CFA_XSP16, literal(-4)))
        CFI (cfiCond25) ?BRET_EXT load(1, XDATA, add(CFA_XSP16, literal(-3)))
        CFI (cfiCond25) DPL0 load(1, XDATA, add(CFA_XSP16, literal(-2)))
        CFI (cfiCond25) DPH0 load(1, XDATA, add(CFA_XSP16, literal(-1)))
        CFI (cfiCond25) CFA_SP SP+-1
        CFI (cfiCond25) CFA_XSP16 add(XSP16, 11)
        CFI Block cfiPicker26 Using cfiCommon1
        CFI (cfiPicker26) NoFunction
        CFI (cfiPicker26) Picker
        MOVX    A,@DPTR
        CFI EndBlock cfiCond24
        CFI EndBlock cfiCond25
        CFI EndBlock cfiPicker26
        REQUIRE ??Subroutine8_0
        ; // Fall through to label ??Subroutine8_0

        RSEG BANKED_CODE:CODE:NOROOT(0)
??Subroutine8_0:
        CFI Block cfiCond27 Using cfiCommon0
        CFI NoFunction
        CFI Conditional ??CrossCallReturnLabel_13
        CFI R6 load(1, XDATA, add(CFA_XSP16, literal(-11)))
        CFI VB load(1, XDATA, add(CFA_XSP16, literal(-10)))
        CFI V0 load(1, XDATA, add(CFA_XSP16, literal(-9)))
        CFI V1 load(1, XDATA, add(CFA_XSP16, literal(-8)))
        CFI V2 load(1, XDATA, add(CFA_XSP16, literal(-7)))
        CFI R7 load(1, XDATA, add(CFA_XSP16, literal(-6)))
        CFI ?RET_LOW load(1, XDATA, add(CFA_XSP16, literal(-5)))
        CFI ?RET_HIGH load(1, XDATA, add(CFA_XSP16, literal(-4)))
        CFI ?BRET_EXT load(1, XDATA, add(CFA_XSP16, literal(-3)))
        CFI DPL0 load(1, XDATA, add(CFA_XSP16, literal(-2)))
        CFI DPH0 load(1, XDATA, add(CFA_XSP16, literal(-1)))
        CFI CFA_SP SP+0
        CFI CFA_XSP16 add(XSP16, 40)
        CFI Block cfiCond28 Using cfiCommon0
        CFI (cfiCond28) NoFunction
        CFI (cfiCond28) Conditional ??CrossCallReturnLabel_14
        CFI (cfiCond28) R6 load(1, XDATA, add(CFA_XSP16, literal(-11)))
        CFI (cfiCond28) VB load(1, XDATA, add(CFA_XSP16, literal(-10)))
        CFI (cfiCond28) V0 load(1, XDATA, add(CFA_XSP16, literal(-9)))
        CFI (cfiCond28) V1 load(1, XDATA, add(CFA_XSP16, literal(-8)))
        CFI (cfiCond28) V2 load(1, XDATA, add(CFA_XSP16, literal(-7)))
        CFI (cfiCond28) R7 load(1, XDATA, add(CFA_XSP16, literal(-6)))
        CFI (cfiCond28) ?RET_LOW load(1, XDATA, add(CFA_XSP16, literal(-5)))
        CFI (cfiCond28) ?RET_HIGH load(1, XDATA, add(CFA_XSP16, literal(-4)))
        CFI (cfiCond28) ?BRET_EXT load(1, XDATA, add(CFA_XSP16, literal(-3)))
        CFI (cfiCond28) DPL0 load(1, XDATA, add(CFA_XSP16, literal(-2)))
        CFI (cfiCond28) DPH0 load(1, XDATA, add(CFA_XSP16, literal(-1)))
        CFI (cfiCond28) CFA_SP SP+0
        CFI (cfiCond28) CFA_XSP16 add(XSP16, 40)
        CFI Block cfiCond29 Using cfiCommon0
        CFI (cfiCond29) NoFunction
        CFI (cfiCond29) Conditional ??CrossCallReturnLabel_15
        CFI (cfiCond29) R6 load(1, XDATA, add(CFA_XSP16, literal(-11)))
        CFI (cfiCond29) VB load(1, XDATA, add(CFA_XSP16, literal(-10)))
        CFI (cfiCond29) V0 load(1, XDATA, add(CFA_XSP16, literal(-9)))
        CFI (cfiCond29) V1 load(1, XDATA, add(CFA_XSP16, literal(-8)))
        CFI (cfiCond29) V2 load(1, XDATA, add(CFA_XSP16, literal(-7)))
        CFI (cfiCond29) R7 load(1, XDATA, add(CFA_XSP16, literal(-6)))
        CFI (cfiCond29) ?RET_LOW load(1, XDATA, add(CFA_XSP16, literal(-5)))
        CFI (cfiCond29) ?RET_HIGH load(1, XDATA, add(CFA_XSP16, literal(-4)))
        CFI (cfiCond29) ?BRET_EXT load(1, XDATA, add(CFA_XSP16, literal(-3)))
        CFI (cfiCond29) DPL0 load(1, XDATA, add(CFA_XSP16, literal(-2)))
        CFI (cfiCond29) DPH0 load(1, XDATA, add(CFA_XSP16, literal(-1)))
        CFI (cfiCond29) CFA_SP SP+0
        CFI (cfiCond29) CFA_XSP16 add(XSP16, 40)
        CFI Block cfiCond30 Using cfiCommon0
        CFI (cfiCond30) NoFunction
        CFI (cfiCond30) Conditional ??CrossCallReturnLabel_16
        CFI (cfiCond30) R6 load(1, XDATA, add(CFA_XSP16, literal(-11)))
        CFI (cfiCond30) VB load(1, XDATA, add(CFA_XSP16, literal(-10)))
        CFI (cfiCond30) V0 load(1, XDATA, add(CFA_XSP16, literal(-9)))
        CFI (cfiCond30) V1 load(1, XDATA, add(CFA_XSP16, literal(-8)))
        CFI (cfiCond30) V2 load(1, XDATA, add(CFA_XSP16, literal(-7)))
        CFI (cfiCond30) R7 load(1, XDATA, add(CFA_XSP16, literal(-6)))
        CFI (cfiCond30) ?RET_LOW load(1, XDATA, add(CFA_XSP16, literal(-5)))
        CFI (cfiCond30) ?RET_HIGH load(1, XDATA, add(CFA_XSP16, literal(-4)))
        CFI (cfiCond30) ?BRET_EXT load(1, XDATA, add(CFA_XSP16, literal(-3)))
        CFI (cfiCond30) DPL0 load(1, XDATA, add(CFA_XSP16, literal(-2)))
        CFI (cfiCond30) DPH0 load(1, XDATA, add(CFA_XSP16, literal(-1)))
        CFI (cfiCond30) CFA_SP SP+-1
        CFI (cfiCond30) CFA_XSP16 add(XSP16, 11)
        CFI Block cfiPicker31 Using cfiCommon1
        CFI (cfiPicker31) NoFunction
        CFI (cfiPicker31) Picker
        MOV     R0,A
        MOV     A,#RadioBuf & 0xff
        ADD     A,R0
        MOV     DPL,A
        MOV     A,#(RadioBuf >> 8) & 0xff
        ADDC    A,#0x0
        MOV     DPH,A
        RET
        CFI EndBlock cfiCond27
        CFI EndBlock cfiCond28
        CFI EndBlock cfiCond29
        CFI EndBlock cfiCond30
        CFI EndBlock cfiPicker31
//  260 

        RSEG BANKED_CODE:CODE:NOROOT(0)
//  261 uint16 CRC16_Check(uint8 *Pushdata,uint8 length)  
CRC16_Check:
        CFI Block cfiBlock32 Using cfiCommon0
        CFI Function CRC16_Check
        CODE
//  262 {  
        MOV     A,#-0xa
        LCALL   ?BANKED_ENTER_XDATA
        CFI DPH0 load(1, XDATA, add(CFA_XSP16, literal(-1)))
        CFI DPL0 load(1, XDATA, add(CFA_XSP16, literal(-2)))
        CFI ?BRET_EXT load(1, XDATA, add(CFA_XSP16, literal(-3)))
        CFI ?RET_HIGH load(1, XDATA, add(CFA_XSP16, literal(-4)))
        CFI ?RET_LOW load(1, XDATA, add(CFA_XSP16, literal(-5)))
        CFI R7 load(1, XDATA, add(CFA_XSP16, literal(-6)))
        CFI V1 load(1, XDATA, add(CFA_XSP16, literal(-7)))
        CFI V0 load(1, XDATA, add(CFA_XSP16, literal(-8)))
        CFI VB load(1, XDATA, add(CFA_XSP16, literal(-9)))
        CFI R6 load(1, XDATA, add(CFA_XSP16, literal(-10)))
        CFI CFA_SP SP+0
        CFI CFA_XSP16 add(XSP16, 10)
        ; Saved register size: 10
        ; Auto size: 0
//  263   uint16 Reg_CRC=0xffff;  
        MOV     R4,#-0x1
        MOV     R5,#-0x1
//  264   uint8 Temp_reg=0x00;  
//  265   uint8 i,j;   
//  266   for( i = 0; i<length; i ++)
        MOV     R6,#0x0
        SJMP    ??CRC16_Check_0
//  267   {  
//  268 	Reg_CRC^= *Pushdata++;  
//  269 	for (j = 0; j<8; j++)  
//  270 	{       
//  271 	if (Reg_CRC & 0x0001)  
//  272 		Reg_CRC=Reg_CRC>>1^0xA001;  
//  273 	else  
//  274 		Reg_CRC >>=1;  
??CRC16_Check_1:
        CLR     C
        RRC     A
        MOV     R5,A
        MOV     A,R4
        RRC     A
        MOV     R4,A
??CRC16_Check_2:
        DEC     R0
        MOV     A,R0
        JNZ     ??CRC16_Check_3
        INC     R6
??CRC16_Check_0:
        MOV     A,R6
        CLR     C
        SUBB    A,R1
        JNC     ??CRC16_Check_4
        MOV     DPL,R2
        MOV     DPH,R3
        MOVX    A,@DPTR
        XRL     A,R4
        MOV     R4,A
        INC     DPTR
        MOV     R2,DPL
        MOV     R3,DPH
        MOV     R0,#0x8
??CRC16_Check_3:
        MOV     A,R4
        MOV     C,0xE0 /* A   */.0
        MOV     A,R5
        JNC     ??CRC16_Check_1
        CLR     C
        RRC     A
        MOV     R5,A
        MOV     A,R4
        RRC     A
        XRL     A,#0x1
        MOV     R4,A
        MOV     A,R5
        XRL     A,#0xa0
        MOV     R5,A
        SJMP    ??CRC16_Check_2
//  275    }
//  276   }
//  277   Temp_reg=Reg_CRC>>8;
//  278   return (Reg_CRC<<8|Temp_reg);  
??CRC16_Check_4:
        MOV     A,R4
        MOV     R3,A
        MOV     A,R5
        MOV     R2,A
        LJMP    ?Subroutine1 & 0xFFFF
        CFI EndBlock cfiBlock32
//  279 }

        RSEG XDATA_ID:CODE:NOROOT(0)
`?<Initializer for d_message>`:
        DATA16
        DW 0
        DW 11
        DW 11
        DW 11

        RSEG XDATA_ID:CODE:NOROOT(0)
`?<Initializer for send_modbus_data>`:
        DATA8
        DB 1
        DB 3
        DB 0
        DB 0
        DB 0
        DB 0
        DB 0
        DB 0

        RSEG XDATA_ID:CODE:NOROOT(0)
`?<Initializer for group>`:
        DATA16
        DW 2

        RSEG XDATA_ID:CODE:NOROOT(0)
`?<Initializer for radio_send_flag>`:
        DATA16
        DW 1

        RSEG BANK_RELAYS:CODE:REORDER:NOROOT(0)
??GenericApp_Init?relay:
        LCALL   ?BDISPATCH
        DATA
        DC24    GenericApp_Init

        RSEG BANK_RELAYS:CODE:REORDER:NOROOT(0)
??GenericApp_ProcessEvent?relay:
        LCALL   ?BDISPATCH
        DATA
        DC24    GenericApp_ProcessEvent

        RSEG BANK_RELAYS:CODE:REORDER:NOROOT(0)
??GenericApp_SendTheMessage?relay:
        LCALL   ?BDISPATCH
        DATA
        DC24    GenericApp_SendTheMessage

        RSEG BANK_RELAYS:CODE:REORDER:NOROOT(0)
??rxCB?relay:
        LCALL   ?BDISPATCH
        DATA
        DC24    rxCB

        RSEG BANK_RELAYS:CODE:REORDER:NOROOT(0)
??CRC16_Check?relay:
        LCALL   ?BDISPATCH
        DATA
        DC24    CRC16_Check

        END
//  280 
//  281 /*
//  282 void GenericApp_MessageMSGCB(afIncomingMSGPacket_t *pkt)
//  283 {  
//  284     switch ( pkt->clusterId )
//  285     {
//  286     case GENERICAPP_CLUSTERID:
//  287       
//  288         osal_memset(buf, 0 , 3);
//  289         osal_memcpy(buf, pkt->cmd.Data, 2);
//  290         if(buf[0]=='D' && buf[1]=='1')       
//  291         {
//  292             HalLedBlink(HAL_LED_1, 0, 50, 500);                                   
//  293         }
//  294         else
//  295         {
//  296             HalLedSet(HAL_LED_1,HAL_LED_MODE_ON);                   
//  297         }
//  298       
//  299         break;
//  300     }
//  301 }
//  302 */
// 
// 1 144 bytes in segment BANKED_CODE
//    30 bytes in segment BANK_RELAYS
//     2 bytes in segment SFR_AN
//    20 bytes in segment XDATA_I
//    20 bytes in segment XDATA_ID
//    14 bytes in segment XDATA_ROM_C
//   148 bytes in segment XDATA_Z
// 
// 1 194 bytes of CODE  memory
//    14 bytes of CONST memory
//     0 bytes of DATA  memory (+ 2 bytes shared)
//   168 bytes of XDATA memory
//
//Errors: none
//Warnings: none
